ARM Linker, 4.1 [Build 481] [Standard]

==============================================================================

Section Cross References

    stm32f10x_adc.o(.text) refers to stm32f10x_rcc.o(.text) for RCC_APB2PeriphResetCmd
    stm32f10x_dac.o(.text) refers to stm32f10x_rcc.o(.text) for RCC_APB1PeriphResetCmd
    stm32f10x_dma.o(.text) refers to os_cpu_a.o(.text) for OS_CPU_SR_Save
    stm32f10x_exti.o(.text) refers to os_cpu_a.o(.text) for OS_CPU_SR_Save
    stm32f10x_flash.o(.text) refers to os_cpu_a.o(.text) for OS_CPU_SR_Save
    stm32f10x_gpio.o(.text) refers to stm32f10x_rcc.o(.text) for RCC_APB2PeriphResetCmd
    stm32f10x_gpio.o(.text) refers to os_cpu_a.o(.text) for OS_CPU_SR_Save
    stm32f10x_rcc.o(.text) refers to os_cpu_a.o(.text) for OS_CPU_SR_Save
    stm32f10x_rcc.o(.text) refers to stm32f10x_rcc.o(.constdata) for .constdata
    stm32f10x_sdio.o(.text) refers to os_cpu_a.o(.text) for OS_CPU_SR_Save
    stm32f10x_spi.o(.text) refers to stm32f10x_rcc.o(.text) for RCC_APB2PeriphResetCmd
    stm32f10x_spi.o(.text) refers to os_cpu_a.o(.text) for OS_CPU_SR_Save
    stm32f10x_tim.o(.text) refers to stm32f10x_rcc.o(.text) for RCC_APB1PeriphResetCmd
    stm32f10x_usart.o(.text) refers to stm32f10x_rcc.o(.text) for RCC_APB2PeriphResetCmd
    stm32f10x_usart.o(.text) refers to os_cpu_a.o(.text) for OS_CPU_SR_Save
    stm32f10x_wwdg.o(.text) refers to stm32f10x_rcc.o(.text) for RCC_APB1PeriphResetCmd
    startup_stm32f10x_hd.o(RESET) refers to startup_stm32f10x_hd.o(.text) for Reset_Handler
    startup_stm32f10x_hd.o(RESET) refers to sys_misc.o(.text) for HardFault_Handler
    startup_stm32f10x_hd.o(RESET) refers to os_cpu_a.o(.text) for PendSV_Handler
    startup_stm32f10x_hd.o(RESET) refers to os_cpu_c.o(.text) for SysTick_Handler
    startup_stm32f10x_hd.o(RESET) refers to w25p80.o(.text) for SPI2_IRQHandler
    startup_stm32f10x_hd.o(RESET) refers to usart.o(.text) for USART1_IRQHandler
    startup_stm32f10x_hd.o(RESET) refers to sdcard.o(.text) for SDIO_IRQHandler
    startup_stm32f10x_hd.o(.text) refers to startup_stm32f10x_hd.o(STACK) for __initial_sp
    startup_stm32f10x_hd.o(.text) refers to system_stm32f10x.o(.text) for SystemInit
    startup_stm32f10x_hd.o(.text) refers to entry.o(.ARM.Collect$$$$00000000) for __main
    misc.o(.text) refers to os_cpu_a.o(.text) for OS_CPU_SR_Save
    sdcard.o(.text) refers to stm32f10x_sdio.o(.text) for SDIO_ITConfig
    sdcard.o(.text) refers to timer.o(.text) for os_time_get
    sdcard.o(.text) refers to printf8.o(i.__0printf$8) for __2printf
    sdcard.o(.text) refers to mutex.o(.text) for mutex_lock
    sdcard.o(.text) refers to memory.o(.text) for mem_malloc_ex
    sdcard.o(.text) refers to sdcard.o(.data) for .data
    sdcard.o(.text) refers to sdcard.o(.constdata) for .constdata
    sdcard.o(.text) refers to sdcard.o(.bss) for .bss
    sdcard.o(.text) refers to wait.o(.text) for init_event
    sdcard.o(.text) refers to stm32f10x_rcc.o(.text) for RCC_APB2PeriphClockCmd
    sdcard.o(.text) refers to driver_misc.o(.text) for gpio_cfg
    sdcard.o(.text) refers to stm32f10x_dma.o(.text) for DMA_ITConfig
    sdcard.o(.text) refers to misc.o(.text) for NVIC_Init
    sdcard.o(.text) refers to moal_sdio_mmc.o(.text) for sdio_reset
    sdcard.o(.text) refers to sdcard.o(i.local_irq_save) for local_irq_save
    sdcard.o(.text) refers to os_cpu_a.o(.text) for OS_CPU_SR_Restore
    sdcard.o(.text) refers to os_core.o(.text) for OSIntExit
    sdcard.o(.text) refers to os_core.o(.data) for OSIntNesting
    usart.o(.text) refers to memseta.o(.text) for __aeabi_memclr4
    usart.o(.text) refers to stm32f10x_rcc.o(.text) for RCC_APB2PeriphClockCmd
    usart.o(.text) refers to driver_misc.o(.text) for gpio_cfg
    usart.o(.text) refers to wait.o(.text) for init_event
    usart.o(.text) refers to stm32f10x_usart.o(.text) for USART_Init
    usart.o(.text) refers to misc.o(.text) for NVIC_Init
    usart.o(.text) refers to timer.o(.text) for os_time_get
    usart.o(.text) refers to printf8.o(i.__0printf$8) for __2printf
    usart.o(.text) refers to os_cpu_a.o(.text) for OS_CPU_SR_Save
    usart.o(.text) refers to usart.o(i.enter_interrupt) for enter_interrupt
    usart.o(.text) refers to usart.o(i.exit_interrupt) for exit_interrupt
    usart.o(.text) refers to usart.o(.bss) for .bss
    usart.o(.text) refers to main.o(.data) for command
    usart.o(.text) refers to main.o(.data) for command_event
    driver_misc.o(.text) refers to memory.o(.text) for sys_meminit
    driver_misc.o(.text) refers to misc.o(.text) for NVIC_PriorityGroupConfig
    driver_misc.o(.text) refers to timer.o(.text) for os_time_get
    driver_misc.o(.text) refers to stm32f10x_gpio.o(.text) for GPIO_Init
    driver_misc.o(.text) refers to stm32f10x_rcc.o(.text) for RCC_APB2PeriphClockCmd
    driver_misc.o(.text) refers to printf8.o(i.__0printf$8) for __2printf
    driver_misc.o(.text) refers to system_stm32f10x.o(.constdata) for SystemFrequency
    w25p80.o(.text) refers to stm32f10x_spi.o(.text) for SPI_I2S_GetFlagStatus
    w25p80.o(.text) refers to sys_misc.o(.text) for delay_us
    w25p80.o(.text) refers to timer.o(.text) for sleep
    w25p80.o(.text) refers to printf8.o(i.__0printf$8) for __2printf
    w25p80.o(.text) refers to memory.o(.text) for mem_malloc_ex
    w25p80.o(.text) refers to memcmp.o(.text) for memcmp
    w25p80.o(.text) refers to os_cpu_c.o(.data) for jiffies
    w25p80.o(.text) refers to w25p80.o(.bss) for .bss
    w25p80.o(.text) refers to w25p80.o(.constdata) for .constdata
    w25p80.o(.text) refers to memseta.o(.text) for __aeabi_memclr4
    w25p80.o(.text) refers to mutex.o(.text) for mutex_init
    w25p80.o(.text) refers to stm32f10x_rcc.o(.text) for RCC_APB1PeriphClockCmd
    w25p80.o(.text) refers to driver_misc.o(.text) for gpio_cfg
    w25p80.o(.text) refers to moal_main.o(.constdata) for fm_88w8287
    os_core.o(.text) refers to os_cpu_a.o(.text) for OS_CPU_SR_Save
    os_core.o(.text) refers to os_task.o(.text) for OSTaskStkChk
    os_core.o(.text) refers to os_time.o(.text) for OSTimeDly
    os_core.o(.text) refers to os_cpu_c.o(.text) for OSTaskStatHook
    os_core.o(.text) refers to os_core.o(.data) for .data
    os_core.o(.text) refers to os_core.o(.bss) for .bss
    os_core.o(.text) refers to os_flag.o(.text) for OS_FlagInit
    os_core.o(.text) refers to os_q.o(.text) for OS_QInit
    os_core.o(.text) refers to os_tmr.o(.text) for OSTmr_Init
    os_core.o(.text) refers to os_core.o(.constdata) for .constdata
    os_flag.o(.text) refers to os_cpu_a.o(.text) for OS_CPU_SR_Save
    os_flag.o(.text) refers to os_core.o(.text) for OS_Sched
    os_flag.o(.text) refers to os_core.o(.data) for OSIntNesting
    os_flag.o(.text) refers to os_core.o(.data) for OSFlagFreeList
    os_flag.o(.text) refers to os_core.o(.bss) for OSFlagTbl
    os_mbox.o(.text) refers to os_cpu_a.o(.text) for OS_CPU_SR_Save
    os_mbox.o(.text) refers to os_core.o(.text) for OS_EventWaitListInit
    os_mbox.o(.text) refers to os_core.o(.data) for OSIntNesting
    os_mutex.o(.text) refers to os_cpu_a.o(.text) for OS_CPU_SR_Save
    os_mutex.o(.text) refers to os_core.o(.text) for OS_EventWaitListInit
    os_mutex.o(.text) refers to os_core.o(.data) for OSIntNesting
    os_mutex.o(.text) refers to os_core.o(.bss) for OSTCBPrioTbl
    os_q.o(.text) refers to os_cpu_a.o(.text) for OS_CPU_SR_Save
    os_q.o(.text) refers to os_core.o(.text) for OS_EventWaitListInit
    os_q.o(.text) refers to os_core.o(.data) for OSIntNesting
    os_q.o(.text) refers to os_core.o(.data) for OSQFreeList
    os_q.o(.text) refers to os_core.o(.bss) for OSQTbl
    os_sem.o(.text) refers to os_cpu_a.o(.text) for OS_CPU_SR_Save
    os_sem.o(.text) refers to os_core.o(.text) for OS_EventWaitListInit
    os_sem.o(.text) refers to os_core.o(.data) for OSIntNesting
    os_task.o(.text) refers to os_cpu_a.o(.text) for OS_CPU_SR_Save
    os_task.o(.text) refers to os_core.o(.text) for OS_Sched
    os_task.o(.text) refers to os_cpu_c.o(.text) for OSTaskStkInit
    os_task.o(.text) refers to os_flag.o(.text) for OS_FlagUnlink
    os_task.o(.text) refers to memory.o(.text) for mem_free
    os_task.o(.text) refers to os_core.o(.bss) for OSTCBPrioTbl
    os_task.o(.text) refers to os_core.o(.data) for OSTCBCur
    os_time.o(.text) refers to os_cpu_a.o(.text) for OS_CPU_SR_Save
    os_time.o(.text) refers to os_core.o(.text) for OS_Sched
    os_time.o(.text) refers to os_core.o(.data) for OSIntNesting
    os_time.o(.text) refers to os_core.o(.bss) for OSTCBPrioTbl
    os_tmr.o(.text) refers to timer.o(.text) for os_time_get
    os_tmr.o(.text) refers to printf8.o(i.__0printf$8) for __2printf
    os_tmr.o(.text) refers to os_core.o(.text) for OSSchedLock
    os_tmr.o(.text) refers to os_core.o(.bss) for OSTmrTbl
    os_tmr.o(.text) refers to os_core.o(.data) for OSIntNesting
    os_tmr.o(.text) refers to os_core.o(.data) for OSTmrFreeList
    os_tmr.o(.text) refers to os_core.o(.data) for OSTmrUsed
    os_tmr.o(.text) refers to os_core.o(.data) for OSTmrFree
    os_tmr.o(.text) refers to os_core.o(.bss) for OSTmrWheelTbl
    os_tmr.o(.text) refers to os_core.o(.data) for OSTmrTime
    os_tmr.o(.text) refers to os_sem.o(.text) for OSSemPost
    os_tmr.o(.text) refers to task.o(.text) for timer_tasklet_callback
    os_tmr.o(.text) refers to os_task.o(.text) for OSTaskCreateExt
    os_tmr.o(.text) refers to os_core.o(.data) for OSTmrSemSignal
    os_tmr.o(.text) refers to os_core.o(.data) for OSTmrSem
    os_tmr.o(.text) refers to os_core.o(.bss) for OSTmrTaskStk
    os_cpu_c.o(.text) refers to sys_misc.o(.text) for App_TaskCreateHook
    os_cpu_c.o(.text) refers to os_tmr.o(.text) for OSTmrSignal
    os_cpu_c.o(.text) refers to os_core.o(.text) for OSTimeTick
    os_cpu_c.o(.text) refers to usart.o(i.exit_interrupt) for exit_interrupt
    os_cpu_c.o(.text) refers to os_cpu_c.o(.data) for .data
    os_cpu_c.o(.text) refers to os_task.o(.text) for OS_TaskReturn
    os_cpu_c.o(.text) refers to os_core.o(.data) for OSIntNesting
    os_cpu_a.o(.text) refers to os_core.o(.data) for OSRunning
    os_cpu_a.o(.text) refers to os_cpu_c.o(.text) for OSTaskSwHook
    atomic.o(.text) refers to os_cpu_a.o(.text) for OS_CPU_SR_Save
    atomic.o(.text) refers to sdcard.o(i.local_irq_save) for local_irq_save
    mbox.o(.text) refers to os_mbox.o(.text) for OSMboxCreate
    mbox.o(.text) refers to timer.o(.text) for os_time_get
    mbox.o(.text) refers to printf8.o(i.__0printf$8) for __2printf
    msg_q.o(.text) refers to timer.o(.text) for os_time_get
    msg_q.o(.text) refers to printf8.o(i.__0printf$8) for __2printf
    msg_q.o(.text) refers to memory.o(.text) for mem_malloc_ex
    msg_q.o(.text) refers to os_q.o(.text) for OSQCreate
    msg_q.o(.text) refers to msg_q.o(.bss) for .bss
    msg_q.o(.text) refers to msg_q.o(.constdata) for .constdata
    mutex.o(.text) refers to os_sem.o(.text) for OSSemCreate
    mutex.o(.text) refers to os_core.o(.text) for OSEventNameSet
    mutex.o(.text) refers to timer.o(.text) for os_time_get
    mutex.o(.text) refers to printf8.o(i.__0printf$8) for __2printf
    sem.o(.text) refers to os_sem.o(.text) for OSSemCreate
    sem.o(.text) refers to timer.o(.text) for os_time_get
    sem.o(.text) refers to printf8.o(i.__0printf$8) for __2printf
    task.o(.text) refers to memory.o(.text) for mem_calloc_ex
    task.o(.text) refers to os_task.o(.text) for OSTaskCreateExt
    task.o(.text) refers to os_cpu_a.o(.text) for OS_CPU_SR_Save
    task.o(.text) refers to timer.o(.text) for os_time_get
    task.o(.text) refers to printf8.o(i.__0printf$8) for __2printf
    task.o(.text) refers to wait.o(.text) for wait_event_timeout
    task.o(.text) refers to os_core.o(.text) for OSSchedUnlock
    task.o(.text) refers to task.o(.constdata) for .constdata
    task.o(.text) refers to os_core.o(.data) for OSTCBCur
    task.o(.text) refers to task.o(.data) for .data
    timer.o(.text) refers to os_time.o(.text) for OSTimeGet
    timer.o(.text) refers to printf8.o(i.__0printf$8) for __2printf
    timer.o(.text) refers to os_tmr.o(.text) for OSTmrCreate
    timer.o(.text) refers to task.o(.text) for init_work
    timer.o(.text) refers to sys_misc.o(.text) for delay_us
    timer.o(.text) refers to os_core.o(.data) for OSIntNesting
    wait.o(.text) refers to os_sem.o(.text) for OSSemCreate
    wait.o(.text) refers to timer.o(.text) for os_time_get
    wait.o(.text) refers to printf8.o(i.__0printf$8) for __2printf
    memory.o(.text) refers to mutex.o(.text) for mutex_lock
    memory.o(.text) refers to timer.o(.text) for os_time_get
    memory.o(.text) refers to printf8.o(i.__0printf$8) for __2printf
    memory.o(.text) refers to printf8.o(i.__0snprintf$8) for __2snprintf
    memory.o(.text) refers to memory.o(.data) for .data
    memory.o(.text) refers to usart.o(.bss) for u1_send
    memory.o(.text) refers to memory.o(monitor_item_table) for monitor_item_table
    memory.o(.text) refers to memory.o(.constdata) for .constdata
    memory.o(.text) refers to memseta.o(.text) for __aeabi_memclr
    memory.o(monitor_item_table) refers to memory.o(.conststrlit) for .conststrlit
    api_lib.o(.text) refers to api_msg.o(.text) for netconn_alloc
    api_lib.o(.text) refers to tcpip.o(.text) for tcpip_apimsg
    api_lib.o(.text) refers to printf8.o(i.__0printf$8) for __2printf
    api_lib.o(.text) refers to sys_arch.o(.text) for sys_sem_valid
    api_lib.o(.text) refers to memory.o(.text) for mem_free
    api_lib.o(.text) refers to sdcard.o(i.local_irq_save) for local_irq_save
    api_lib.o(.text) refers to os_cpu_a.o(.text) for OS_CPU_SR_Restore
    api_lib.o(.text) refers to def.o(.constdata) for zero_ref
    api_lib.o(.text) refers to memp.o(.constdata) for memp_sizes
    api_lib.o(.text) refers to api_lib.o(.constdata) for .constdata
    api_msg.o(.text) refers to sys_arch.o(.text) for sys_mbox_valid
    api_msg.o(.text) refers to pbuf.o(.text) for pbuf_alloc
    api_msg.o(.text) refers to memory.o(.text) for mem_malloc_ex
    api_msg.o(.text) refers to netbuf.o(.text) for netbuf_delete
    api_msg.o(.text) refers to printf8.o(i.__0printf$8) for __2printf
    api_msg.o(.text) refers to os_cpu_a.o(.text) for OS_CPU_SR_Save
    api_msg.o(.text) refers to tcp.o(.text) for tcp_recved
    api_msg.o(.text) refers to memp.o(.constdata) for memp_sizes
    api_msg.o(.text) refers to api_msg.o(.constdata) for .constdata
    api_msg.o(.text) refers to ip.o(.data) for current_iphdr_src
    api_msg.o(.text) refers to def.o(.constdata) for zero_ref
    api_msg.o(.text) refers to tcp_out.o(.text) for tcp_write
    api_msg.o(.text) refers to raw.o(.text) for raw_new
    api_msg.o(.text) refers to udp.o(.text) for udp_new
    api_msg.o(.text) refers to igmp.o(.text) for igmp_leavegroup
    api_msg.o(.text) refers to strcmp.o(.text) for strcmp
    api_msg.o(.text) refers to dns.o(.text) for dns_gethostbyname
    netbuf.o(.text) refers to memory.o(.text) for mem_malloc_ex
    netbuf.o(.text) refers to pbuf.o(.text) for pbuf_free
    netbuf.o(.text) refers to printf8.o(i.__0printf$8) for __2printf
    netbuf.o(.text) refers to memp.o(.constdata) for memp_sizes
    netbuf.o(.text) refers to netbuf.o(.constdata) for .constdata
    netbuf.o(.text) refers to def.o(.constdata) for zero_ref
    netdb.o(.text) refers to api_lib.o(.text) for netconn_gethostbyname
    netdb.o(.text) refers to strlen.o(.text) for strlen
    netdb.o(.text) refers to memmove.o(.text) for __aeabi_memcpy
    netdb.o(.text) refers to memory.o(.text) for mem_free
    netdb.o(.text) refers to atoi.o(.text) for atoi
    netdb.o(.text) refers to printf8.o(i.__0printf$8) for __2printf
    netdb.o(.text) refers to memseta.o(.text) for __aeabi_memclr4
    netdb.o(.text) refers to netdb.o(.data) for .data
    netdb.o(.text) refers to netdb.o(.bss) for .bss
    netdb.o(.text) refers to def.o(.constdata) for zero_ref
    netdb.o(.text) refers to memp.o(.constdata) for memp_sizes
    netdb.o(.text) refers to netdb.o(.constdata) for .constdata
    sockets.o(.text) refers to sdcard.o(i.local_irq_save) for local_irq_save
    sockets.o(.text) refers to os_cpu_a.o(.text) for OS_CPU_SR_Restore
    sockets.o(.text) refers to printf8.o(i.__0printf$8) for __2printf
    sockets.o(.text) refers to sys_arch.o(.text) for sys_sem_signal
    sockets.o(.text) refers to api_lib.o(.text) for netconn_accept
    sockets.o(.text) refers to memmove.o(.text) for __aeabi_memcpy
    sockets.o(.text) refers to sockets.o(.data) for .data
    sockets.o(.text) refers to sockets.o(.bss) for .bss
    sockets.o(.text) refers to def.o(.constdata) for zero_ref
    sockets.o(.text) refers to sockets.o(.constdata) for .constdata
    sockets.o(.text) refers to pbuf.o(.text) for pbuf_free
    sockets.o(.text) refers to netbuf.o(.text) for netbuf_delete
    sockets.o(.text) refers to tcpip.o(.text) for tcpip_callback_with_block
    sockets.o(.text) refers to igmp.o(.text) for igmp_leavegroup
    tcpip.o(.text) refers to timers.o(.text) for sys_timeouts_mbox_fetch
    tcpip.o(.text) refers to etharp.o(.text) for ethernet_input
    tcpip.o(.text) refers to ip.o(.text) for ip_input
    tcpip.o(.text) refers to memory.o(.text) for mem_free
    tcpip.o(.text) refers to printf8.o(i.__0printf$8) for __2printf
    tcpip.o(.text) refers to sys_arch.o(.text) for sys_mbox_valid
    tcpip.o(.text) refers to init.o(.text) for lwip_init
    tcpip.o(.text) refers to pbuf.o(.text) for pbuf_free
    tcpip.o(.text) refers to tcpip.o(.data) for .data
    tcpip.o(.text) refers to def.o(.constdata) for zero_ref
    tcpip.o(.text) refers to memp.o(.constdata) for memp_sizes
    tcpip.o(.text) refers to tcpip.o(.constdata) for .constdata
    sys_arch.o(.text) refers to os_sem.o(.text) for OSSemCreate
    sys_arch.o(.text) refers to timer.o(.text) for os_time_get
    sys_arch.o(.text) refers to printf8.o(i.__0printf$8) for __2printf
    sys_arch.o(.text) refers to memory.o(.text) for mem_calloc_ex
    sys_arch.o(.text) refers to os_q.o(.text) for OSQCreate
    sys_arch.o(.text) refers to sys_arch.o(.bss) for .bss
    sys_arch.o(.text) refers to sys_arch.o(.data) for .data
    sys_arch.o(.text) refers to os_cpu_c.o(.data) for jiffies
    sys_arch.o(.text) refers to sys_arch.o(.constdata) for .constdata
    sys_arch.o(.text) refers to os_core.o(.data) for OSIntNesting
    sys_arch.o(.text) refers to task.o(.text) for thread_create
    dhcp.o(.text) refers to printf8.o(i.__0printf$8) for __2printf
    dhcp.o(.text) refers to pbuf.o(.text) for pbuf_free
    dhcp.o(.text) refers to driver_misc.o(.text) for get_random
    dhcp.o(.text) refers to def.o(.constdata) for zero_ref
    dhcp.o(.text) refers to dhcp.o(.constdata) for .constdata
    dhcp.o(.text) refers to dhcp.o(.data) for .data
    dhcp.o(.text) refers to udp.o(.text) for udp_sendto_if
    dhcp.o(.text) refers to etharp.o(.text) for etharp_query
    dhcp.o(.text) refers to ip_addr.o(.constdata) for ip_addr_broadcast
    dhcp.o(.text) refers to netif.o(.data) for netif_list
    dhcp.o(.text) refers to netif.o(.text) for netif_set_down
    dhcp.o(.text) refers to memseta.o(.text) for __aeabi_memclr4
    dhcp.o(.text) refers to memory.o(.text) for mem_free
    dhcp.o(.text) refers to ip_addr.o(.constdata) for ip_addr_any
    dhcp.o(.text) refers to dhcp.o(.bss) for .bss
    dhcp.o(.text) refers to dns.o(.text) for dns_setserver
    dns.o(.text) refers to memory.o(.text) for mem_malloc_ex
    dns.o(.text) refers to pbuf.o(.text) for pbuf_copy_partial
    dns.o(.text) refers to ip_addr.o(.text) for ipaddr_addr
    dns.o(.text) refers to udp.o(.text) for udp_new
    dns.o(.text) refers to printf8.o(i.__0printf$8) for __2printf
    dns.o(.text) refers to strlen.o(.text) for strlen
    dns.o(.text) refers to dns.o(.data) for .data
    dns.o(.text) refers to dns.o(.constdata) for .constdata
    dns.o(.text) refers to dns.o(.bss) for .bss
    dns.o(.text) refers to def.o(.constdata) for zero_ref
    dns.o(.text) refers to ip_addr.o(.constdata) for ip_addr_any
    dns.o(.text) refers to strcmp.o(.text) for strcmp
    dns.o(.text) refers to memmove.o(.text) for __aeabi_memcpy
    init.o(.text) refers to stats.o(.text) for stats_init
    init.o(.text) refers to sys_arch.o(.text) for sys_init
    init.o(.text) refers to netif.o(.text) for netif_init
    init.o(.text) refers to sockets.o(.text) for lwip_socket_init
    init.o(.text) refers to udp.o(.text) for udp_init
    init.o(.text) refers to tcp.o(.text) for tcp_init
    init.o(.text) refers to igmp.o(.text) for igmp_init
    init.o(.text) refers to dns.o(.text) for dns_init
    init.o(.text) refers to timers.o(.text) for sys_timeouts_init
    netif.o(.text) refers to tcp.o(.text) for tcp_abort
    netif.o(.text) refers to printf8.o(i.__0printf$8) for __2printf
    netif.o(.text) refers to igmp.o(.text) for igmp_start
    netif.o(.text) refers to etharp.o(.text) for etharp_cleanup_netif
    netif.o(.text) refers to dhcp.o(.text) for dhcp_network_changed
    netif.o(.text) refers to tcp.o(.data) for tcp_active_pcbs
    netif.o(.text) refers to def.o(.constdata) for zero_ref
    netif.o(.text) refers to netif.o(.data) for .data
    pbuf.o(.text) refers to sdcard.o(i.local_irq_save) for local_irq_save
    pbuf.o(.text) refers to os_cpu_a.o(.text) for OS_CPU_SR_Restore
    pbuf.o(.text) refers to tcp.o(.text) for tcp_segs_free
    pbuf.o(.text) refers to tcpip.o(.text) for tcpip_callback_with_block
    pbuf.o(.text) refers to printf8.o(i.__0printf$8) for __2printf
    pbuf.o(.text) refers to memory.o(.text) for mem_free
    pbuf.o(.text) refers to pbuf.o(.data) for .data
    pbuf.o(.text) refers to tcp.o(.data) for tcp_active_pcbs
    pbuf.o(.text) refers to def.o(.constdata) for zero_ref
    pbuf.o(.text) refers to memp.o(.constdata) for memp_sizes
    pbuf.o(.text) refers to pbuf.o(.constdata) for .constdata
    pbuf.o(.text) refers to memmove.o(.text) for __aeabi_memcpy
    pbuf.o(.text) refers to strlen.o(.text) for strlen
    raw.o(.text) refers to pbuf.o(.text) for pbuf_header
    raw.o(.text) refers to printf8.o(i.__0printf$8) for __2printf
    raw.o(.text) refers to ip.o(.text) for ip_route
    raw.o(.text) refers to memory.o(.text) for mem_free
    raw.o(.text) refers to memseta.o(.text) for __aeabi_memclr4
    raw.o(.text) refers to raw.o(.data) for .data
    raw.o(.text) refers to ip.o(.data) for current_iphdr_dest
    raw.o(.text) refers to def.o(.constdata) for zero_ref
    raw.o(.text) refers to memp.o(.constdata) for memp_sizes
    raw.o(.text) refers to raw.o(.constdata) for .constdata
    sys.o(.text) refers to sys_arch.o(.text) for sys_sem_new
    tcp.o(.text) refers to pbuf.o(.text) for pbuf_free
    tcp.o(.text) refers to memory.o(.text) for mem_free
    tcp.o(.text) refers to printf8.o(i.__0printf$8) for __2printf
    tcp.o(.text) refers to tcp_out.o(.text) for tcp_zero_window_probe
    tcp.o(.text) refers to tcp.o(.data) for .data
    tcp.o(.text) refers to def.o(.constdata) for zero_ref
    tcp.o(.text) refers to tcp.o(.constdata) for .constdata
    tcp.o(.text) refers to timers.o(.text) for tcp_timer_needed
    tcp.o(.text) refers to ip.o(.text) for ip_route
    tcp.o(.text) refers to memp.o(.constdata) for memp_sizes
    tcp.o(.text) refers to memseta.o(.text) for __aeabi_memclr4
    tcp.o(.constdata) refers to tcp.o(.conststring) for .conststring
    tcp.o(.constdata) refers to tcp.o(.data) for tcp_listen_pcbs
    tcp_in.o(.text) refers to tcp.o(.text) for tcp_segs_free
    tcp_in.o(.text) refers to pbuf.o(.text) for pbuf_realloc
    tcp_in.o(.text) refers to printf8.o(i.__0printf$8) for __2printf
    tcp_in.o(.text) refers to tcp_out.o(.text) for tcp_rexmit_fast
    tcp_in.o(.text) refers to tcp_in.o(.data) for .data
    tcp_in.o(.text) refers to def.o(.constdata) for zero_ref
    tcp_in.o(.text) refers to tcp.o(.data) for tcp_ticks
    tcp_in.o(.text) refers to tcp_in.o(.bss) for .bss
    tcp_in.o(.text) refers to ip.o(.data) for current_iphdr_src
    tcp_in.o(.text) refers to timers.o(.text) for tcp_timer_needed
    tcp_in.o(.text) refers to ip_addr.o(.text) for ip4_addr_isbroadcast
    tcp_in.o(.text) refers to inet_chksum.o(.text) for inet_chksum_pseudo
    tcp_in.o(.text) refers to stats.o(.bss) for lwip_stats
    tcp_in.o(.text) refers to memory.o(.text) for mem_free
    tcp_out.o(.text) refers to pbuf.o(.text) for pbuf_alloc
    tcp_out.o(.text) refers to printf8.o(i.__0printf$8) for __2printf
    tcp_out.o(.text) refers to memory.o(.text) for mem_malloc_ex
    tcp_out.o(.text) refers to tcp.o(.text) for tcp_seg_free
    tcp_out.o(.text) refers to def.o(.constdata) for zero_ref
    tcp_out.o(.text) refers to memp.o(.constdata) for memp_sizes
    tcp_out.o(.text) refers to tcp_out.o(.constdata) for .constdata
    tcp_out.o(.text) refers to stats.o(.bss) for lwip_stats
    tcp_out.o(.text) refers to memmove.o(.text) for __aeabi_memcpy
    tcp_out.o(.text) refers to inet_chksum.o(.text) for inet_chksum_pseudo
    tcp_out.o(.text) refers to ip.o(.text) for ip_output
    tcp_out.o(.text) refers to tcp.o(.data) for tcp_ticks
    tcp_out.o(.text) refers to tcp_in.o(.data) for tcp_input_pcb
    timers.o(.text) refers to memory.o(.text) for mem_malloc_ex
    timers.o(.text) refers to printf8.o(i.__0printf$8) for __2printf
    timers.o(.text) refers to tcp.o(.text) for tcp_tmr
    timers.o(.text) refers to ip_frag.o(.text) for ip_reass_tmr
    timers.o(.text) refers to etharp.o(.text) for etharp_tmr
    timers.o(.text) refers to dhcp.o(.text) for dhcp_coarse_tmr
    timers.o(.text) refers to igmp.o(.text) for igmp_tmr
    timers.o(.text) refers to dns.o(.text) for dns_tmr
    timers.o(.text) refers to sys_arch.o(.text) for sys_arch_mbox_fetch
    timers.o(.text) refers to memp.o(.constdata) for memp_sizes
    timers.o(.text) refers to timers.o(.constdata) for .constdata
    timers.o(.text) refers to timers.o(.data) for .data
    timers.o(.text) refers to def.o(.constdata) for zero_ref
    timers.o(.text) refers to tcp.o(.data) for tcp_active_pcbs
    udp.o(.text) refers to pbuf.o(.text) for pbuf_header
    udp.o(.text) refers to ip_addr.o(.text) for ip4_addr_isbroadcast
    udp.o(.text) refers to inet_chksum.o(.text) for inet_chksum_pseudo
    udp.o(.text) refers to printf8.o(i.__0printf$8) for __2printf
    udp.o(.text) refers to icmp.o(.text) for icmp_dest_unreach
    udp.o(.text) refers to ip.o(.text) for ip_output_if
    udp.o(.text) refers to stats.o(.bss) for lwip_stats
    udp.o(.text) refers to ip.o(.data) for current_iphdr_dest
    udp.o(.text) refers to udp.o(.data) for .data
    udp.o(.text) refers to def.o(.constdata) for zero_ref
    udp.o(.text) refers to memory.o(.text) for mem_free
    udp.o(.text) refers to memseta.o(.text) for __aeabi_memclr4
    udp.o(.text) refers to memp.o(.constdata) for memp_sizes
    udp.o(.text) refers to udp.o(.constdata) for .constdata
    icmp.o(.text) refers to pbuf.o(.text) for pbuf_header
    icmp.o(.text) refers to ip_addr.o(.text) for ip4_addr_isbroadcast
    icmp.o(.text) refers to inet_chksum.o(.text) for inet_chksum_pbuf
    icmp.o(.text) refers to printf8.o(i.__0printf$8) for __2printf
    icmp.o(.text) refers to ip.o(.text) for ip_output_if
    icmp.o(.text) refers to memmove.o(.text) for __aeabi_memcpy
    icmp.o(.text) refers to stats.o(.bss) for lwip_stats
    icmp.o(.text) refers to ip.o(.data) for current_iphdr_dest
    icmp.o(.text) refers to def.o(.constdata) for zero_ref
    igmp.o(.text) refers to memory.o(.text) for mem_malloc_ex
    igmp.o(.text) refers to pbuf.o(.text) for pbuf_header
    igmp.o(.text) refers to inet_chksum.o(.text) for inet_chksum
    igmp.o(.text) refers to printf8.o(i.__0printf$8) for __2printf
    igmp.o(.text) refers to ip.o(.text) for ip_output_if_opt
    igmp.o(.text) refers to igmp.o(.data) for .data
    igmp.o(.text) refers to memp.o(.constdata) for memp_sizes
    igmp.o(.text) refers to igmp.o(.constdata) for .constdata
    igmp.o(.text) refers to stats.o(.bss) for lwip_stats
    igmp.o(.text) refers to ip_addr.o(.constdata) for ip_addr_any
    igmp.o(.text) refers to def.o(.constdata) for zero_ref
    igmp.o(.text) refers to netif.o(.data) for netif_list
    igmp.o(.text) refers to driver_misc.o(.text) for get_random
    inet_chksum.o(.text) refers to printf8.o(i.__0printf$8) for __2printf
    inet_chksum.o(.text) refers to def.o(.constdata) for zero_ref
    ip.o(.text) refers to pbuf.o(.text) for pbuf_free
    ip.o(.text) refers to inet_chksum.o(.text) for inet_chksum
    ip.o(.text) refers to ip_addr.o(.text) for ip4_addr_isbroadcast
    ip.o(.text) refers to igmp.o(.text) for igmp_lookfor_group
    ip.o(.text) refers to ip_frag.o(.text) for ip_reass
    ip.o(.text) refers to raw.o(.text) for raw_input
    ip.o(.text) refers to udp.o(.text) for udp_input
    ip.o(.text) refers to tcp_in.o(.text) for tcp_input
    ip.o(.text) refers to icmp.o(.text) for icmp_input
    ip.o(.text) refers to printf8.o(i.__0printf$8) for __2printf
    ip.o(.text) refers to memmove.o(.text) for __aeabi_memcpy
    ip.o(.text) refers to memseta.o(.text) for __aeabi_memclr
    ip.o(.text) refers to netif.o(.data) for netif_list
    ip.o(.text) refers to stats.o(.bss) for lwip_stats
    ip.o(.text) refers to ip.o(.data) for .data
    ip.o(.text) refers to def.o(.constdata) for zero_ref
    ip_addr.o(.text) refers to printf8.o(i.__0printf$8) for __2printf
    ip_addr.o(.text) refers to def.o(.constdata) for zero_ref
    ip_addr.o(.text) refers to ip_addr.o(.bss) for .bss
    ip_frag.o(.text) refers to printf8.o(i.__0printf$8) for __2printf
    ip_frag.o(.text) refers to memory.o(.text) for mem_free
    ip_frag.o(.text) refers to memmove.o(.text) for __aeabi_memcpy
    ip_frag.o(.text) refers to icmp.o(.text) for icmp_time_exceeded
    ip_frag.o(.text) refers to pbuf.o(.text) for pbuf_clen
    ip_frag.o(.text) refers to ip_frag.o(.data) for .data
    ip_frag.o(.text) refers to def.o(.constdata) for zero_ref
    ip_frag.o(.text) refers to stats.o(.bss) for lwip_stats
    ip_frag.o(.text) refers to inet_chksum.o(.text) for inet_chksum
    ip_frag.o(.text) refers to memseta.o(.text) for __aeabi_memclr4
    ip_frag.o(.text) refers to memp.o(.constdata) for memp_sizes
    ip_frag.o(.text) refers to ip_frag.o(.constdata) for .constdata
    ethernetif.o(.text) refers to wifi.o(.text) for is_hw_ok
    ethernetif.o(.text) refers to skbuff.o(.text) for __alloc_skb
    ethernetif.o(.text) refers to memmove.o(.text) for __aeabi_memcpy
    ethernetif.o(.text) refers to pbuf.o(.text) for pbuf_alloc
    ethernetif.o(.text) refers to timer.o(.text) for os_time_get
    ethernetif.o(.text) refers to printf8.o(i.__0printf$8) for __2printf
    ethernetif.o(.text) refers to memory.o(.text) for mem_malloc_ex
    ethernetif.o(.text) refers to ethernetif.o(.constdata) for .constdata
    ethernetif.o(.text) refers to ethernetif.o(.data) for .data
    ethernetif.o(.text) refers to ethernetif.o(monitor_item_table) for monitor_item_table
    ethernetif.o(.text) refers to wifi.o(.data) for wifi_dev
    ethernetif.o(.text) refers to stats.o(.bss) for lwip_stats
    ethernetif.o(.text) refers to def.o(.constdata) for zero_ref
    ethernetif.o(.text) refers to etharp.o(.text) for etharp_output
    ethernetif.o(monitor_item_table) refers to ethernetif.o(.conststrlit) for .conststrlit
    etharp.o(.text) refers to pbuf.o(.text) for pbuf_free
    etharp.o(.text) refers to printf8.o(i.__0printf$8) for __2printf
    etharp.o(.text) refers to ip_addr.o(.text) for ip4_addr_isbroadcast
    etharp.o(.text) refers to etharp.o(.bss) for .bss
    etharp.o(.text) refers to def.o(.constdata) for zero_ref
    etharp.o(.text) refers to etharp.o(.constdata) for .constdata
    etharp.o(.text) refers to stats.o(.bss) for lwip_stats
    etharp.o(.text) refers to dhcp.o(.text) for dhcp_arp_reply
    etharp.o(.text) refers to etharp.o(.data) for .data
    etharp.o(.text) refers to memcmp.o(.text) for memcmp
    etharp.o(.text) refers to ip.o(.text) for ip_input
    dhcpd.o(.text) refers to timer.o(.text) for os_time_get
    dhcpd.o(.text) refers to printf8.o(i.__0printf$8) for __2printf
    dhcpd.o(.text) refers to memseta.o(.text) for __aeabi_memclr4
    dhcpd.o(.text) refers to ip_addr.o(.text) for ipaddr_addr
    dhcpd.o(.text) refers to mutex.o(.text) for mutex_lock
    dhcpd.o(.text) refers to sockets.o(.text) for lwip_socket
    dhcpd.o(.text) refers to memory.o(.text) for mem_free
    dhcpd.o(.text) refers to memmove.o(.text) for __aeabi_memcpy
    dhcpd.o(.text) refers to options.o(.text) for get_option
    dhcpd.o(.text) refers to strlen.o(.text) for strlen
    dhcpd.o(.text) refers to strncmp.o(.text) for strncmp
    dhcpd.o(.text) refers to leases.o(.text) for find_lease_by_chaddr
    dhcpd.o(.text) refers to serverpacket.o(.text) for sendOffer
    dhcpd.o(.text) refers to debug.o(.data) for dbg_level
    dhcpd.o(.text) refers to dhcpd.o(.constdata) for .constdata
    dhcpd.o(.text) refers to dhcpd.o(.bss) for .bss
    dhcpd.o(.text) refers to tcpapp.o(.data) for p_netif
    dhcpd.o(.text) refers to dhcpd.o(.data) for .data
    dhcpd.o(.text) refers to packet.o(.text) for time
    leases.o(.text) refers to memcmp.o(.text) for memcmp
    leases.o(.text) refers to memseta.o(.text) for __aeabi_memclr4
    leases.o(.text) refers to packet.o(.text) for time
    leases.o(.text) refers to memmove.o(.text) for __aeabi_memcpy
    leases.o(.text) refers to timer.o(.text) for os_time_get
    leases.o(.text) refers to printf8.o(i.__0printf$8) for __2printf
    leases.o(.text) refers to sys_arch.o(.text) for sys_sem_new
    leases.o(.text) refers to etharp.o(.text) for etharp_query
    leases.o(.text) refers to dhcpd.o(.data) for leases
    leases.o(.text) refers to dhcpd.o(.bss) for server_config
    leases.o(.text) refers to debug.o(.data) for dbg_level
    leases.o(.text) refers to leases.o(.constdata) for .constdata
    leases.o(.text) refers to tcpapp.o(.data) for p_netif
    options.o(.text) refers to memmove.o(.text) for __aeabi_memcpy
    options.o(.text) refers to mallocr.o(i.realloc) for realloc
    options.o(.text) refers to memory.o(.text) for mem_malloc_ex
    options.o(.text) refers to options.o(.constdata) for .constdata
    packet.o(.text) refers to memseta.o(.text) for __aeabi_memclr4
    packet.o(.text) refers to options.o(.text) for add_simple_option
    packet.o(.text) refers to memory.o(.text) for mem_calloc_ex
    packet.o(.text) refers to memmove.o(.text) for __aeabi_memcpy4
    packet.o(.text) refers to timer.o(.text) for os_time_get
    packet.o(.text) refers to printf8.o(i.__0printf$8) for __2printf
    packet.o(.text) refers to pbuf.o(.text) for pbuf_alloc
    packet.o(.text) refers to sockets.o(.text) for lwip_socket
    packet.o(.text) refers to os_cpu_c.o(.data) for jiffies
    packet.o(.text) refers to packet.o(.constdata) for .constdata
    packet.o(.text) refers to debug.o(.data) for dbg_level
    packet.o(.text) refers to tcpapp.o(.data) for p_netif
    serverpacket.o(.text) refers to packet.o(.text) for kernel_packet
    serverpacket.o(.text) refers to options.o(.text) for add_simple_option
    serverpacket.o(.text) refers to dns.o(.text) for dns_getserver
    serverpacket.o(.text) refers to strncpy.o(.text) for strncpy
    serverpacket.o(.text) refers to timer.o(.text) for os_time_get
    serverpacket.o(.text) refers to printf8.o(i.__0printf$8) for __2printf
    serverpacket.o(.text) refers to memory.o(.text) for mem_calloc_ex
    serverpacket.o(.text) refers to leases.o(.text) for find_lease_by_chaddr
    serverpacket.o(.text) refers to memmove.o(.text) for memcpy
    serverpacket.o(.text) refers to tcpapp.o(.data) for p_netif
    serverpacket.o(.text) refers to dhcpd.o(.bss) for server_config
    serverpacket.o(.text) refers to debug.o(.data) for dbg_level
    serverpacket.o(.text) refers to serverpacket.o(.constdata) for .constdata
    moal_main.o(.text) refers to memory.o(.text) for mem_malloc_ex
    moal_main.o(.text) refers to memseta.o(.text) for __aeabi_memclr4
    moal_main.o(.text) refers to moal_ioctl.o(.text) for woal_request_ioctl
    moal_main.o(.text) refers to wait.o(.text) for wake_up
    moal_main.o(.text) refers to mutex.o(.text) for mutex_init
    moal_main.o(.text) refers to timer.o(.text) for timer_setup
    moal_main.o(.text) refers to memmove.o(.text) for __aeabi_memcpy4
    moal_main.o(.text) refers to mlan_shim.o(.text) for mlan_register
    moal_main.o(.text) refers to printf8.o(i.__0printf$8) for __2printf
    moal_main.o(.text) refers to atomic.o(.text) for atomic_read
    moal_main.o(.text) refers to usr_cfg.o(.text) for wiphy_unregister
    moal_main.o(.text) refers to moal_sta_cfg80211.o(.text) for woal_cfg80211_sta_init_wiphy
    moal_main.o(.text) refers to moal_uap_cfg80211.o(.text) for woal_cfg80211_uap_init_wiphy
    moal_main.o(.text) refers to moal_main.o(.constdata) for .constdata
    moal_main.o(.text) refers to moal_main.o(.data) for .data
    moal_main.o(.text) refers to moal_shim.o(.constdata) for woal_callbacks
    moal_main.o(.text) refers to printf8.o(i.__0snprintf$8) for __2snprintf
    moal_main.o(.text) refers to printf8.o(i.__0sprintf$8) for __2sprintf
    moal_main.o(.text) refers to strncpy.o(.text) for strncpy
    moal_main.o(.text) refers to wifi.o(.text) for register_netdev
    moal_main.o(.text) refers to moal_sdio_mmc.o(.text) for sdio_readb
    moal_main.o(.text) refers to task.o(.text) for schedule_work
    moal_main.o(.text) refers to skbuff.o(.text) for skb_mac_header
    moal_main.o(.text) refers to ctype_o.o(.text) for __rt_ctype_table
    moal_main.o(.text) refers to strlen.o(.text) for strlen
    moal_main.o(.text) refers to strncmp.o(.text) for strncmp
    moal_main.o(.text) refers to mlan_sdio.o(.text) for read_int_status
    moal_main.o(.constdata) refers to moal_main.o(.text) for woal_open
    moal_main.o(.constdata) refers to moal_uap.o(.text) for woal_uap_set_multicast_list
    moal_cfg80211.o(.text) refers to moal_main.o(.text) for woal_alloc_mlan_ioctl_req
    moal_cfg80211.o(.text) refers to moal_ioctl.o(.text) for woal_request_ioctl
    moal_cfg80211.o(.text) refers to memory.o(.text) for mem_free
    moal_cfg80211.o(.text) refers to memmove.o(.text) for __aeabi_memcpy
    moal_cfg80211.o(.text) refers to memcmp.o(.text) for memcmp
    moal_cfg80211.o(.text) refers to memseta.o(.text) for __aeabi_memclr
    moal_cfg80211.o(.text) refers to moal_cfg80211.o(.constdata) for .constdata
    moal_cfg80211.o(.text) refers to moal_uap_cfg80211.o(.text) for woal_cfg80211_del_beacon
    moal_cfg80211.o(.text) refers to moal_uap.o(.text) for woal_set_sys_config_invalid_data
    moal_cfg80211.o(.text) refers to moal_sta_cfg80211.o(.text) for woal_set_rf_channel
    moal_cfg80211.o(.text) refers to usr_cfg.o(.text) for ieee80211_frequency_to_channel
    moal_cfg80211.o(.text) refers to driver_misc.o(.text) for get_random
    moal_cfg80211.o(.text) refers to mlan_shim.o(.text) for mlan_send_packet
    moal_cfg80211.o(.text) refers to atomic.o(.text) for atomic_add
    moal_cfg80211.o(.text) refers to task.o(.text) for schedule_work
    moal_cfg80211.o(.text) refers to timer.o(.text) for sleep
    moal_cfg80211.o(.text) refers to printf8.o(i.__0printf$8) for __2printf
    moal_cfg80211.o(.text) refers to moal_cfg80211.o(.data) for .data
    moal_cfg80211.o(.data) refers to moal_cfg80211.o(.constdata) for cfg80211_channels_2ghz
    moal_cfg80211.o(.data) refers to moal_cfg80211.o(.constdata) for cfg80211_rates
    moal_cfg80211.o(.data) refers to moal_cfg80211.o(.constdata) for cfg80211_channels_5ghz
    moal_cfg80211.o(.data) refers to moal_cfg80211.o(.constdata) for cfg80211_rates
    moal_ioctl.o(.text) refers to memmove.o(.text) for __aeabi_memcpy4
    moal_ioctl.o(.text) refers to wait.o(.text) for wait_event_timeout
    moal_ioctl.o(.text) refers to os_cpu_a.o(.text) for OS_CPU_SR_Save
    moal_ioctl.o(.text) refers to timer.o(.text) for os_time_get
    moal_ioctl.o(.text) refers to printf8.o(i.__0printf$8) for __2printf
    moal_ioctl.o(.text) refers to mlan_shim.o(.text) for mlan_ioctl
    moal_ioctl.o(.text) refers to atomic.o(.text) for atomic_add
    moal_ioctl.o(.text) refers to task.o(.text) for schedule_work
    moal_ioctl.o(.text) refers to moal_main.o(.text) for woal_alloc_mlan_ioctl_req
    moal_ioctl.o(.text) refers to memory.o(.text) for mem_free
    moal_ioctl.o(.text) refers to os_cpu_c.o(.data) for jiffies
    moal_ioctl.o(.text) refers to moal_ioctl.o(.constdata) for .constdata
    moal_ioctl.o(.text) refers to moal_main.o(.constdata) for cfg80211_wext
    moal_ioctl.o(.text) refers to strlen.o(.text) for strlen
    moal_ioctl.o(.text) refers to memcmp.o(.text) for memcmp
    moal_ioctl.o(.text) refers to memseta.o(.text) for __aeabi_memset
    moal_ioctl.o(.text) refers to usr_cfg.o(.text) for copy_from_user
    moal_ioctl.o(.text) refers to moal_main.o(.constdata) for woal_uap_netdev_ops
    moal_ioctl.o(.text) refers to printf8.o(i.__0snprintf$8) for __2snprintf
    moal_ioctl.o(.text) refers to printfa.o(i.__0snprintf) for __c89snprintf
    moal_ioctl.o(.text) refers to mutex.o(.text) for mutex_lock
    moal_ioctl.o(.text) refers to moal_main.o(.data) for driver_version
    moal_ioctl.o(.text) refers to strncpy.o(.text) for strncpy
    moal_ioctl.o(.text) refers to moal_cfg80211.o(.data) for cfg80211_band_5ghz
    moal_ioctl.o(.text) refers to moal_cfg80211.o(.data) for cfg80211_band_2ghz
    moal_sdio_mmc.o(.text) refers to sdcard.o(.text) for mmc_io_rw_extended
    moal_sdio_mmc.o(.text) refers to timer.o(.text) for os_time_get
    moal_sdio_mmc.o(.text) refers to printf8.o(i.__0printf$8) for __2printf
    moal_sdio_mmc.o(.text) refers to sdcard.o(.bss) for cccr
    moal_sdio_mmc.o(.text) refers to task.o(.text) for schedule_work
    moal_sdio_mmc.o(.text) refers to memory.o(.text) for mem_calloc_ex
    moal_sdio_mmc.o(.text) refers to moal_main.o(.text) for woal_add_card
    moal_sdio_mmc.o(.text) refers to moal_sdio_mmc.o(.constdata) for .constdata
    moal_shim.o(.text) refers to memory.o(.text) for mem_malloc_ex
    moal_shim.o(.text) refers to atomic.o(.text) for atomic_add
    moal_shim.o(.text) refers to memseta.o(.text) for memset
    moal_shim.o(.text) refers to memmove.o(.text) for memcpy
    moal_shim.o(.text) refers to memcmp.o(.text) for memcmp
    moal_shim.o(.text) refers to timer.o(.text) for sleep
    moal_shim.o(.text) refers to sys_misc.o(.text) for delay_us
    moal_shim.o(.text) refers to usr_cfg.o(.text) for do_gettimeofday
    moal_shim.o(.text) refers to os_cpu_a.o(.text) for OS_CPU_SR_Save
    moal_shim.o(.text) refers to printf8.o(i.__0printf$8) for __2printf
    moal_shim.o(.text) refers to w25p80.o(.text) for read_firmware
    moal_shim.o(.text) refers to wait.o(.text) for wake_up
    moal_shim.o(.text) refers to moal_main.o(.text) for woal_bss_index_to_priv
    moal_shim.o(.text) refers to moal_ioctl.o(.text) for woal_process_ioctl_resp
    moal_shim.o(.text) refers to skbuff.o(.text) for consume_skb
    moal_shim.o(.text) refers to moal_sdio_mmc.o(.text) for woal_write_data_sync
    moal_shim.o(.text) refers to moal_shim.o(.constdata) for .constdata
    moal_shim.o(.text) refers to moal_shim.o(.data) for .data
    moal_shim.o(.text) refers to moal_shim.o(.bss) for .bss
    moal_shim.o(.text) refers to strncpy.o(.text) for strncpy
    moal_shim.o(.text) refers to mutex.o(.text) for mutex_unlock
    moal_shim.o(.text) refers to moal_sta_cfg80211.o(.text) for woal_inform_bss_from_scan_result
    moal_shim.o(.text) refers to task.o(.text) for schedule_work
    moal_shim.o(.text) refers to moal_main.o(.constdata) for cfg80211_wext
    moal_shim.o(.constdata) refers to moal_shim.o(.text) for moal_get_fw_data
    moal_sta_cfg80211.o(.text) refers to moal_ioctl.o(.text) for woal_set_get_gen_ie
    moal_sta_cfg80211.o(.text) refers to memcmp.o(.text) for memcmp
    moal_sta_cfg80211.o(.text) refers to moal_main.o(.text) for woal_alloc_mlan_ioctl_req
    moal_sta_cfg80211.o(.text) refers to memory.o(.text) for mem_free
    moal_sta_cfg80211.o(.text) refers to usr_cfg.o(.text) for ieee80211_frequency_to_channel
    moal_sta_cfg80211.o(.text) refers to memmove.o(.text) for __aeabi_memcpy4
    moal_sta_cfg80211.o(.text) refers to memseta.o(.text) for __aeabi_memclr4
    moal_sta_cfg80211.o(.text) refers to strcmp.o(.text) for strcmp
    moal_sta_cfg80211.o(.text) refers to moal_cfg80211.o(.text) for woal_cfg80211_set_key
    moal_sta_cfg80211.o(.text) refers to usr_cfg.o(.bss) for lastest_scan_result
    moal_sta_cfg80211.o(.text) refers to moal_sta_cfg80211.o(.constdata) for .constdata
    moal_sta_cfg80211.o(.text) refers to moal_cfg80211.o(.data) for cfg80211_band_2ghz
    moal_sta_cfg80211.o(.text) refers to moal_cfg80211.o(.data) for cfg80211_band_5ghz
    moal_sta_cfg80211.o(.text) refers to moal_cfg80211.o(.constdata) for cfg80211_cipher_suites
    moal_sta_cfg80211.o(.constdata) refers to moal_cfg80211.o(.text) for woal_cfg80211_change_virtual_intf
    moal_sta_cfg80211.o(.constdata) refers to moal_sta_cfg80211.o(.text) for woal_cfg80211_get_station
    moal_uap_cfg80211.o(.text) refers to moal_uap.o(.text) for woal_set_get_sys_config
    moal_uap_cfg80211.o(.text) refers to memseta.o(.text) for __aeabi_memclr
    moal_uap_cfg80211.o(.text) refers to memmove.o(.text) for __aeabi_memcpy
    moal_uap_cfg80211.o(.text) refers to usr_cfg.o(.text) for cfg80211_scan_done
    moal_uap_cfg80211.o(.text) refers to moal_cfg80211.o(.text) for woal_get_netdev_priv
    moal_uap_cfg80211.o(.text) refers to moal_ioctl.o(.text) for woal_cancel_scan
    moal_uap_cfg80211.o(.text) refers to moal_main.o(.text) for woal_alloc_mlan_ioctl_req
    moal_uap_cfg80211.o(.text) refers to memcmp.o(.text) for memcmp
    moal_uap_cfg80211.o(.text) refers to memory.o(.text) for mem_free
    moal_uap_cfg80211.o(.text) refers to moal_uap_cfg80211.o(.constdata) for .constdata
    moal_uap_cfg80211.o(.text) refers to moal_cfg80211.o(.data) for cfg80211_band_2ghz
    moal_uap_cfg80211.o(.text) refers to moal_cfg80211.o(.data) for cfg80211_band_5ghz
    moal_uap_cfg80211.o(.text) refers to moal_cfg80211.o(.constdata) for cfg80211_cipher_suites
    moal_uap_cfg80211.o(.constdata) refers to moal_cfg80211.o(.text) for woal_cfg80211_change_virtual_intf
    moal_uap_cfg80211.o(.constdata) refers to moal_uap_cfg80211.o(.text) for woal_cfg80211_add_beacon
    moal_uap_cfg80211.o(.constdata) refers to moal_sta_cfg80211.o(.text) for woal_cfg80211_set_tx_power
    moal_uap.o(.text) refers to memseta.o(.text) for __aeabi_memclr4
    moal_uap.o(.text) refers to usr_cfg.o(.text) for copy_from_user
    moal_uap.o(.text) refers to moal_main.o(.text) for woal_alloc_mlan_ioctl_req
    moal_uap.o(.text) refers to moal_ioctl.o(.text) for woal_request_ioctl
    moal_uap.o(.text) refers to memory.o(.text) for mem_free
    moal_uap.o(.text) refers to memmove.o(.text) for __aeabi_memcpy4
    moal_uap.o(.text) refers to strncmp.o(.text) for strncmp
    moal_uap.o(.text) refers to strlen.o(.text) for strlen
    moal_uap.o(.text) refers to strncpy.o(.text) for strncpy
    moal_uap.o(.text) refers to moal_uap_priv.o(.text) for woal_uap_do_priv_ioctl
    moal_uap.o(.text) refers to printfa.o(i.__0snprintf) for __c89snprintf
    moal_uap.o(.text) refers to moal_uap.o(.constdata) for .constdata
    moal_uap.o(.text) refers to moal_uap.o(.data) for .data
    moal_uap.o(.text) refers to moal_main.o(.data) for driver_version
    moal_uap.o(.text) refers to moal_sdio_mmc.o(.text) for sdio_writeb
    moal_uap.o(.text) refers to memcmp.o(.text) for memcmp
    moal_uap_priv.o(.text) refers to moal_uap.o(.text) for woal_uap_bss_ctrl
    mlan_11d.o(.text) refers to mlan_cmdevt.o(.text) for wlan_prepare_cmd
    mlan_11d.o(.text) refers to mlan_11d.o(.constdata) for .constdata
    mlan_11d.o(.text) refers to mlan_cfp.o(.text) for wlan_set_regiontable
    mlan_11d.o(.text) refers to mlan_11h.o(.text) for wlan_11h_radar_detect_required
    mlan_11h.o(.text) refers to mlan_cfp.o(.text) for wlan_get_cfp_radar_detect
    mlan_11h.o(.text) refers to mlan_11h.o(.constdata) for .constdata
    mlan_11h.o(.text) refers to mlan_cmdevt.o(.text) for wlan_prepare_cmd
    mlan_11h.o(.text) refers to mlan_11d.o(.text) for wlan_11d_is_enabled
    mlan_11h.o(.text) refers to mlan_join.o(.text) for wlan_disconnect
    mlan_11h.o(.text) refers to mlan_uap_ioctl.o(.text) for wlan_uap_get_channel
    mlan_11h.o(.text) refers to printf8.o(i.__0printf$8) for __2printf
    mlan_11h.o(.text) refers to mlan_misc.o(.text) for wlan_misc_ioctl_custom_ie_list
    mlan_11n.o(.text) refers to mlan_cmdevt.o(.text) for wlan_prepare_cmd
    mlan_11n.o(.text) refers to mlan_11n.o(.data) for .data
    mlan_11n.o(.text) refers to mlan_11n_rxreorder.o(.text) for mlan_11n_delete_bastream_tbl
    mlan_11n.o(.text) refers to mlan_misc.o(.text) for wlan_get_station_entry
    mlan_11n.o(.text) refers to mlan_wmm.o(.text) for wlan_wmm_get_ralist_node
    mlan_11n.o(.text) refers to mlan_join.o(.text) for wlan_band_to_radio_type
    mlan_11n_aggr.o(.text) refers to mlan_misc.o(.text) for wlan_alloc_mlan_buffer
    mlan_11n_aggr.o(.text) refers to mlan_uap_txrx.o(.text) for wlan_uap_recv_packet
    mlan_11n_aggr.o(.text) refers to mlan_txrx.o(.text) for wlan_recv_packet_complete
    mlan_11n_aggr.o(.text) refers to mlan_wmm.o(.text) for wlan_wmm_compute_driver_packet_delay
    mlan_11n_aggr.o(.text) refers to mlan_sta_tx.o(.text) for wlan_check_last_packet_indication
    mlan_11n_aggr.o(.text) refers to mlan_sdio.o(.text) for wlan_sdio_host_to_card
    mlan_11n_aggr.o(.text) refers to mlan_11n_aggr.o(.constdata) for .constdata
    mlan_11n_rxreorder.o(.text) refers to mlan_uap_txrx.o(.text) for wlan_process_uap_rx_packet
    mlan_11n_rxreorder.o(.text) refers to mlan_sta_rx.o(.text) for wlan_process_rx_packet
    mlan_11n_rxreorder.o(.text) refers to mlan_misc.o(.text) for wlan_get_station_entry
    mlan_11n_rxreorder.o(.text) refers to mlan_11n.o(.text) for wlan_11n_get_txbastream_tbl
    mlan_11n_rxreorder.o(.text) refers to mlan_cmdevt.o(.text) for wlan_prepare_cmd
    mlan_11n_rxreorder.o(.text) refers to mlan_11n_aggr.o(.text) for wlan_11n_deaggregate_pkt
    mlan_cfp.o(.text) refers to memmove.o(.text) for __aeabi_memcpy4
    mlan_cfp.o(.text) refers to mlan_cfp.o(.constdata) for .constdata
    mlan_cfp.o(.text) refers to mlan_11d.o(.text) for wlan_is_station
    mlan_cfp.o(.text) refers to timer.o(.text) for os_time_get
    mlan_cfp.o(.text) refers to printf8.o(i.__0printf$8) for __2printf
    mlan_cfp.o(.constdata) refers to mlan_cfp.o(.constdata) for channel_freq_power_BR_BG
    mlan_cfp.o(.constdata) refers to mlan_cfp.o(.constdata) for channel_freq_power_US_BG
    mlan_cfp.o(.constdata) refers to mlan_cfp.o(.constdata) for channel_freq_power_EU_BG
    mlan_cfp.o(.constdata) refers to mlan_cfp.o(.constdata) for channel_freq_power_FR_BG
    mlan_cfp.o(.constdata) refers to mlan_cfp.o(.constdata) for channel_freq_power_JPN40_BG
    mlan_cfp.o(.constdata) refers to mlan_cfp.o(.constdata) for channel_freq_power_JPN41_BG
    mlan_cfp.o(.constdata) refers to mlan_cfp.o(.constdata) for channel_freq_power_JPNFE_BG
    mlan_cfp.o(.constdata) refers to mlan_cfp.o(.constdata) for channel_freq_power_SPECIAL_BG
    mlan_cfp.o(.constdata) refers to mlan_cfp.o(.constdata) for channel_freq_power_low_band
    mlan_cfp.o(.constdata) refers to mlan_cfp.o(.constdata) for channel_freq_power_lower_middle_band
    mlan_cfp.o(.constdata) refers to mlan_cfp.o(.constdata) for channel_freq_power_upper_middle_band
    mlan_cfp.o(.constdata) refers to mlan_cfp.o(.constdata) for channel_freq_power_high_band
    mlan_cfp.o(.constdata) refers to mlan_cfp.o(.constdata) for channel_freq_power_low_high_band
    mlan_cfp.o(.constdata) refers to mlan_cfp.o(.constdata) for channel_freq_power_GRM_A
    mlan_cfp.o(.constdata) refers to mlan_cfp.o(.constdata) for channel_freq_power_SPN0_A
    mlan_cfp.o(.constdata) refers to mlan_cfp.o(.constdata) for channel_freq_power_SPN1_A
    mlan_cfp.o(.constdata) refers to mlan_cfp.o(.constdata) for channel_freq_power_SPN2_A
    mlan_cfp.o(.constdata) refers to mlan_cfp.o(.constdata) for channel_freq_power_SPN3_A
    mlan_cfp.o(.constdata) refers to mlan_cfp.o(.constdata) for channel_freq_power_AT_A
    mlan_cfp.o(.constdata) refers to mlan_cfp.o(.constdata) for channel_freq_power_BR1_A
    mlan_cfp.o(.constdata) refers to mlan_cfp.o(.constdata) for channel_freq_power_BR2_A
    mlan_cfp.o(.constdata) refers to mlan_cfp.o(.constdata) for channel_freq_power_RU_A
    mlan_cfp.o(.constdata) refers to mlan_cfp.o(.constdata) for channel_freq_power_A
    mlan_cfp.o(.constdata) refers to mlan_cfp.o(.constdata) for channel_freq_power_CAN_A
    mlan_cfp.o(.constdata) refers to mlan_cfp.o(.constdata) for channel_freq_power_EU_A
    mlan_cfp.o(.constdata) refers to mlan_cfp.o(.constdata) for channel_freq_power_JPN_A
    mlan_cfp.o(.constdata) refers to mlan_cfp.o(.constdata) for channel_freq_power_CN_A
    mlan_cfp.o(.constdata) refers to mlan_cfp.o(.constdata) for channel_freq_power_NULL_A
    mlan_cmdevt.o(.text) refers to timer.o(.text) for os_time_get
    mlan_cmdevt.o(.text) refers to printf8.o(i.__0printf$8) for __2printf
    mlan_cmdevt.o(.text) refers to mlan_misc.o(.text) for wlan_alloc_mlan_buffer
    mlan_cmdevt.o(.text) refers to mlan_sdio.o(.text) for wlan_sdio_host_to_card
    mlan_cmdevt.o(.text) refers to mlan_11n_rxreorder.o(.text) for wlan_update_rxreorder_tbl
    mlan_cmdevt.o(.text) refers to mlan_cmdevt.o(.constdata) for .constdata
    mlan_cmdevt.o(.text) refers to mlan_cmdevt.o(.data) for .data
    mlan_cmdevt.o(.text) refers to mlan_11h.o(.text) for wlan_11h_dfs_event_preprocessing
    mlan_cmdevt.o(.text) refers to mlan_scan.o(.text) for wlan_queue_scan_cmd
    mlan_cmdevt.o(.text) refers to mlan_init.o(.text) for wlan_init_fw_complete
    mlan_cmdevt.o(.text) refers to mlan_cfp.o(.text) for wlan_index_to_data_rate
    mlan_cmdevt.o(.text) refers to mlan_11n.o(.text) for wlan_show_dot11ndevcap
    mlan_cmdevt.o(.text) refers to mlan_11d.o(.text) for wlan_11d_set_universaltable
    mlan_cmdevt.o(.text) refers to mlan_cfp.o(.constdata) for region_code_index
    mlan_init.o(.text) refers to mlan_cmdevt.o(.text) for wlan_alloc_cmd_buffer
    mlan_init.o(.text) refers to mlan_misc.o(.text) for wlan_alloc_mlan_buffer
    mlan_init.o(.text) refers to memory.o(.text) for mem_calloc_ex
    mlan_init.o(.text) refers to mlan_11d.o(.text) for wlan_11d_priv_init
    mlan_init.o(.text) refers to mlan_11h.o(.text) for wlan_11h_priv_init
    mlan_init.o(.text) refers to mlan_wmm.o(.text) for wlan_wmm_init
    mlan_init.o(.text) refers to mlan_init.o(.constdata) for .constdata
    mlan_init.o(.text) refers to mlan_shim.o(.text) for mlan_main_process
    mlan_init.o(.text) refers to mlan_scan.o(.text) for wlan_free_curr_bcn
    mlan_join.o(.text) refers to timer.o(.text) for os_time_get
    mlan_join.o(.text) refers to printf8.o(i.__0printf$8) for __2printf
    mlan_join.o(.text) refers to memory.o(.text) for mem_free
    mlan_join.o(.text) refers to mlan_11n.o(.text) for wlan_cmd_append_11n_tlv
    mlan_join.o(.text) refers to mlan_wmm.o(.text) for wlan_wmm_process_association_req
    mlan_join.o(.text) refers to mlan_11d.o(.text) for wlan_11d_create_dnld_countryinfo
    mlan_join.o(.text) refers to mlan_11h.o(.text) for wlan_11h_process_join
    mlan_join.o(.text) refers to mlan_join.o(.constdata) for .constdata
    mlan_join.o(.text) refers to mlan_join.o(monitor_item_table) for monitor_item_table
    mlan_join.o(.text) refers to mlan_scan.o(.text) for wlan_save_curr_bcn
    mlan_join.o(.text) refers to mlan_cmdevt.o(.text) for wlan_recv_event
    mlan_join.o(.text) refers to mlan_sta_event.o(.text) for wlan_2040_coex_event
    mlan_join.o(.text) refers to memmove.o(.text) for __aeabi_memcpy4
    mlan_join.o(.text) refers to mlan_cfp.o(.text) for wlan_get_cfp_by_band_and_channel
    mlan_join.o(monitor_item_table) refers to mlan_join.o(.conststrlit) for .conststrlit
    mlan_meas.o(.text) refers to mlan_cmdevt.o(.text) for wlan_prepare_cmd
    mlan_meas.o(.text) refers to mlan_meas.o(.data) for .data
    mlan_misc.o(.text) refers to mlan_cmdevt.o(.text) for wlan_prepare_cmd
    mlan_misc.o(.text) refers to mlan_11n.o(.text) for wlan_get_rxreorder_tbl
    mlan_misc.o(.text) refers to mlan_wmm.o(.constdata) for ac_to_tid
    mlan_misc.o(.text) refers to mlan_init.o(.text) for wlan_free_priv
    mlan_misc.o(.text) refers to mlan_cfp.o(.text) for wlan_set_regiontable
    mlan_misc.o(.text) refers to mlan_11d.o(.text) for wlan_11d_set_universaltable
    mlan_misc.o(.text) refers to mlan_shim.o(.data) for mlan_ops
    mlan_misc.o(.text) refers to mlan_txrx.o(.text) for wlan_bypass_tx_list_empty
    mlan_misc.o(.text) refers to mlan_wmm.o(.text) for wlan_wmm_lists_empty
    mlan_misc.o(.text) refers to mlan_cfp.o(.constdata) for SupportedRates_BG
    mlan_scan.o(.text) refers to mlan_11d.o(.text) for wlan_11d_is_enabled
    mlan_scan.o(.text) refers to mlan_11h.o(.text) for wlan_11h_radar_detect_required
    mlan_scan.o(.text) refers to mlan_cfp.o(.text) for wlan_bg_scan_type_is_passive
    mlan_scan.o(.text) refers to mlan_scan.o(.data) for .data
    mlan_scan.o(.text) refers to mlan_cmdevt.o(.text) for wlan_prepare_cmd
    mlan_scan.o(.text) refers to mlan_11n.o(.text) for wlan_fill_ht_cap_tlv
    mlan_scan.o(.text) refers to mlan_cfp.o(.constdata) for SupportedRates_B
    mlan_scan.o(.text) refers to mlan_scan.o(monitor_item_table) for monitor_item_table
    mlan_scan.o(.text) refers to memseta.o(.text) for __aeabi_memclr4
    mlan_scan.o(.text) refers to usr_cfg.o(.text) for handle_user_scan_result
    mlan_scan.o(monitor_item_table) refers to mlan_scan.o(.conststrlit) for .conststrlit
    mlan_sdio.o(.text) refers to mlan_misc.o(.text) for wlan_delay_func
    mlan_sdio.o(.text) refers to mlan_txrx.o(.text) for wlan_handle_rx_packet
    mlan_sdio.o(.text) refers to mlan_cmdevt.o(.text) for wlan_process_sleep_confirm_resp
    mlan_sdio.o(.text) refers to timer.o(.text) for os_time_get
    mlan_sdio.o(.text) refers to printf8.o(i.__0printf$8) for __2printf
    mlan_sdio.o(.text) refers to memory.o(.text) for mem_free
    mlan_sdio.o(.text) refers to mlan_sdio.o(monitor_item_table) for monitor_item_table
    mlan_sdio.o(.text) refers to mlan_sdio.o(.constdata) for .constdata
    mlan_sdio.o(monitor_item_table) refers to mlan_sdio.o(.conststrlit) for .conststrlit
    mlan_shim.o(.text) refers to printf8.o(i.__0printf$8) for __2printf
    mlan_shim.o(.text) refers to mlan_sdio.o(.text) for wlan_sdio_probe
    mlan_shim.o(.text) refers to mlan_init.o(.text) for wlan_init_lock_list
    mlan_shim.o(.text) refers to mlan_shim.o(.data) for .data
    mlan_shim.o(.text) refers to mlan_cmdevt.o(.text) for wlan_cancel_all_pending_cmd
    mlan_shim.o(.text) refers to mlan_txrx.o(.text) for wlan_bypass_tx_list_empty
    mlan_shim.o(.text) refers to mlan_wmm.o(.text) for wlan_wmm_lists_empty
    mlan_shim.o(.text) refers to mlan_misc.o(.text) for wlan_pm_wakeup_card
    mlan_shim.o(.text) refers to mlan_11h.o(.text) for wlan_11h_radar_detected_tx_blocked
    mlan_shim.o(.text) refers to mlan_sta_tx.o(.text) for wlan_send_null_packet
    mlan_shim.o(.constdata) refers to mlan_sta_cmd.o(.text) for wlan_ops_sta_init_cmd
    mlan_shim.o(.constdata) refers to mlan_sta_ioctl.o(.text) for wlan_ops_sta_ioctl
    mlan_shim.o(.constdata) refers to mlan_sta_cmdresp.o(.text) for wlan_ops_sta_process_cmdresp
    mlan_shim.o(.constdata) refers to mlan_sta_rx.o(.text) for wlan_ops_sta_process_rx_packet
    mlan_shim.o(.constdata) refers to mlan_sta_event.o(.text) for wlan_ops_sta_process_event
    mlan_shim.o(.constdata) refers to mlan_sta_tx.o(.text) for wlan_ops_sta_process_txpd
    mlan_shim.o(.constdata) refers to mlan_uap_cmdevent.o(.text) for wlan_ops_uap_init_cmd
    mlan_shim.o(.constdata) refers to mlan_uap_ioctl.o(.text) for wlan_ops_uap_ioctl
    mlan_shim.o(.constdata) refers to mlan_uap_txrx.o(.text) for wlan_ops_uap_process_rx_packet
    mlan_shim.o(.data) refers to mlan_shim.o(.constdata) for mlan_sta_ops
    mlan_shim.o(.data) refers to mlan_shim.o(.constdata) for mlan_uap_ops
    mlan_sta_cmd.o(.text) refers to mlan_cmdevt.o(.text) for wlan_cmd_get_hw_spec
    mlan_sta_cmd.o(.text) refers to mlan_scan.o(.text) for wlan_cmd_802_11_scan
    mlan_sta_cmd.o(.text) refers to mlan_join.o(.text) for wlan_cmd_802_11_associate
    mlan_sta_cmd.o(.text) refers to mlan_11h.o(.text) for wlan_11h_is_active
    mlan_sta_cmd.o(.text) refers to mlan_11n_rxreorder.o(.text) for wlan_cmd_11n_addba_req
    mlan_sta_cmd.o(.text) refers to mlan_11d.o(.text) for wlan_cmd_802_11d_domain_info
    mlan_sta_cmd.o(.text) refers to mlan_11n.o(.text) for wlan_cmd_recfg_tx_buf
    mlan_sta_cmd.o(.text) refers to mlan_wmm.o(.text) for wlan_cmd_wmm_addts_req
    mlan_sta_cmd.o(.text) refers to mlan_sdio.o(.text) for wlan_cmd_sdio_gpio_int
    mlan_sta_cmd.o(.text) refers to mlan_meas.o(.text) for wlan_meas_cmd_process
    mlan_sta_cmdresp.o(.text) refers to mlan_sta_ioctl.o(.text) for wlan_find_bss
    mlan_sta_cmdresp.o(.text) refers to mlan_11h.o(.text) for wlan_11h_radar_detected_callback
    mlan_sta_cmdresp.o(.text) refers to mlan_cmdevt.o(.text) for wlan_flush_scan_queue
    mlan_sta_cmdresp.o(.text) refers to mlan_scan.o(.text) for wlan_ret_802_11_scan
    mlan_sta_cmdresp.o(.text) refers to mlan_join.o(.text) for wlan_ret_802_11_associate
    mlan_sta_cmdresp.o(.text) refers to mlan_sta_event.o(.text) for wlan_reset_connect_state
    mlan_sta_cmdresp.o(.text) refers to mlan_11d.o(.text) for wlan_ret_802_11d_domain_info
    mlan_sta_cmdresp.o(.text) refers to mlan_11n.o(.text) for wlan_ret_11n_addba_req
    mlan_sta_cmdresp.o(.text) refers to mlan_11n_rxreorder.o(.text) for wlan_ret_11n_addba_resp
    mlan_sta_cmdresp.o(.text) refers to mlan_wmm.o(.text) for wlan_ret_wmm_get_status
    mlan_sta_cmdresp.o(.text) refers to mlan_meas.o(.text) for wlan_meas_cmdresp_process
    mlan_sta_event.o(.text) refers to mlan_11h.o(.text) for wlan_11h_check_update_radar_det_state
    mlan_sta_event.o(.text) refers to mlan_wmm.o(.text) for wlan_clean_txrx
    mlan_sta_event.o(.text) refers to mlan_11d.o(.text) for wlan_11d_is_enabled
    mlan_sta_event.o(.text) refers to mlan_cmdevt.o(.text) for wlan_prepare_cmd
    mlan_sta_event.o(.text) refers to mlan_sta_tx.o(.text) for wlan_check_last_packet_indication
    mlan_sta_event.o(.text) refers to mlan_11n.o(.text) for wlan_11n_delete_bastream
    mlan_sta_event.o(.text) refers to mlan_11n_rxreorder.o(.text) for wlan_11n_ba_stream_timeout
    mlan_sta_ioctl.o(.text) refers to mlan_cmdevt.o(.text) for wlan_prepare_cmd
    mlan_sta_ioctl.o(.text) refers to mlan_scan.o(.text) for wlan_find_ssid_in_list
    mlan_sta_ioctl.o(.text) refers to mlan_misc.o(.text) for wlan_get_info_debug_info
    mlan_sta_ioctl.o(.text) refers to mlan_cfp.o(.text) for wlan_set_regiontable
    mlan_sta_ioctl.o(.text) refers to mlan_11d.o(.text) for wlan_11d_set_universaltable
    mlan_sta_ioctl.o(.text) refers to mlan_join.o(.text) for wlan_disconnect
    mlan_sta_ioctl.o(.text) refers to mlan_11h.o(.text) for wlan_11h_get_csa_closed_channel
    mlan_sta_ioctl.o(.text) refers to timer.o(.text) for os_time_get
    mlan_sta_ioctl.o(.text) refers to printf8.o(i.__0printf$8) for __2printf
    mlan_sta_ioctl.o(.text) refers to memory.o(.text) for mem_free
    mlan_sta_ioctl.o(.text) refers to mlan_sta_ioctl.o(.constdata) for .constdata
    mlan_sta_ioctl.o(.text) refers to mlan_txrx.o(.text) for wlan_cleanup_bypass_txq
    mlan_sta_ioctl.o(.text) refers to memmove.o(.text) for __aeabi_memcpy4
    mlan_sta_ioctl.o(.text) refers to mlan_cfp.o(.constdata) for region_code_index
    mlan_sta_ioctl.o(.text) refers to mlan_cfp.o(.constdata) for cfp_code_index_bg
    mlan_sta_ioctl.o(.text) refers to mlan_cfp.o(.constdata) for cfp_code_index_a
    mlan_sta_ioctl.o(.text) refers to mlan_wmm.o(.text) for wlan_wmm_cfg_ioctl
    mlan_sta_ioctl.o(.text) refers to mlan_11n.o(.text) for wlan_11n_cfg_ioctl
    mlan_sta_ioctl.o(.text) refers to mlan_init.o(.text) for wlan_free_priv
    mlan_sta_rx.o(.text) refers to mlan_misc.o(.text) for wlan_free_mlan_buffer
    mlan_sta_rx.o(.text) refers to mlan_11n_rxreorder.o(.text) for mlan_11n_rxreorder_pkt
    mlan_sta_tx.o(.text) refers to mlan_txrx.o(.text) for wlan_bypass_tx_list_empty
    mlan_sta_tx.o(.text) refers to mlan_wmm.o(.text) for wlan_wmm_lists_empty
    mlan_sta_tx.o(.text) refers to mlan_misc.o(.text) for wlan_alloc_mlan_buffer
    mlan_sta_tx.o(.text) refers to mlan_sdio.o(.text) for wlan_sdio_host_to_card
    mlan_txrx.o(.text) refers to printf8.o(i.__0printf$8) for __2printf
    mlan_txrx.o(.text) refers to mlan_misc.o(.text) for wlan_free_mlan_buffer
    mlan_txrx.o(.text) refers to mlan_sdio.o(.text) for wlan_sdio_host_to_card
    mlan_uap_cmdevent.o(.text) refers to mlan_11h.o(.text) for wlan_11h_radar_detected_callback
    mlan_uap_cmdevent.o(.text) refers to mlan_misc.o(.text) for wlan_add_station_entry
    mlan_uap_cmdevent.o(.text) refers to mlan_cmdevt.o(.text) for wlan_recv_event
    mlan_uap_cmdevent.o(.text) refers to mlan_sdio.o(.text) for wlan_cmd_sdio_gpio_int
    mlan_uap_cmdevent.o(.text) refers to mlan_11d.o(.text) for wlan_cmd_802_11d_domain_info
    mlan_uap_cmdevent.o(.text) refers to mlan_11n.o(.text) for wlan_cmd_recfg_tx_buf
    mlan_uap_cmdevent.o(.text) refers to mlan_11n_rxreorder.o(.text) for wlan_cmd_11n_addba_req
    mlan_uap_cmdevent.o(.text) refers to mlan_wmm.o(.text) for wlan_cmd_wmm_queue_config
    mlan_uap_cmdevent.o(.text) refers to memmove.o(.text) for __aeabi_memcpy4
    mlan_uap_ioctl.o(.text) refers to mlan_cmdevt.o(.text) for wlan_prepare_cmd
    mlan_uap_ioctl.o(.text) refers to mlan_11h.o(.text) for wlan_11h_radar_detect_required
    mlan_uap_ioctl.o(.text) refers to timer.o(.text) for os_time_get
    mlan_uap_ioctl.o(.text) refers to printf8.o(i.__0printf$8) for __2printf
    mlan_uap_ioctl.o(.text) refers to memory.o(.text) for mem_free
    mlan_uap_ioctl.o(.text) refers to mlan_11d.o(.text) for wlan_11d_handle_uap_domain_info
    mlan_uap_ioctl.o(.text) refers to mlan_misc.o(.text) for wlan_bss_ioctl_bss_role
    mlan_uap_ioctl.o(.text) refers to mlan_uap_ioctl.o(.constdata) for .constdata
    mlan_uap_ioctl.o(.text) refers to mlan_11n.o(.text) for wlan_11n_cfg_ioctl
    mlan_uap_ioctl.o(.text) refers to mlan_wmm.o(.text) for wlan_wmm_cfg_ioctl
    mlan_uap_ioctl.o(.text) refers to mlan_wmm.o(.data) for tos_to_tid_inv
    mlan_uap_txrx.o(.text) refers to mlan_misc.o(.text) for wlan_get_station_entry
    mlan_uap_txrx.o(.text) refers to mlan_wmm.o(.text) for wlan_wmm_compute_driver_packet_delay
    mlan_uap_txrx.o(.text) refers to mlan_11n_rxreorder.o(.text) for wlan_11n_get_rxreorder_tbl
    mlan_wmm.o(.text) refers to mlan_misc.o(.text) for wlan_get_station_entry
    mlan_wmm.o(.text) refers to mlan_txrx.o(.text) for wlan_write_data_complete
    mlan_wmm.o(.text) refers to mlan_cmdevt.o(.text) for wlan_recv_event
    mlan_wmm.o(.text) refers to mlan_wmm.o(.constdata) for .constdata
    mlan_wmm.o(.text) refers to mlan_wmm.o(.data) for .data
    mlan_wmm.o(.text) refers to mlan_sdio.o(.text) for wlan_sdio_host_to_card
    mlan_wmm.o(.text) refers to mlan_11n.o(.text) for wlan_11n_get_txbastream_tbl
    mlan_wmm.o(.text) refers to mlan_11n_aggr.o(.text) for wlan_11n_aggregate_pkt
    mlan_wmm.o(.text) refers to mlan_11n_rxreorder.o(.text) for wlan_11n_cleanup_reorder_tbl
    sys_misc.o(.text) refers to timer.o(.text) for os_time_get
    sys_misc.o(.text) refers to printf8.o(i.__0printf$8) for __2printf
    sys_misc.o(.text) refers to test_tcpip.o(.text) for show_tcpip_info
    sys_misc.o(.text) refers to memory.o(.text) for mem_slide_check
    sys_misc.o(.text) refers to wifi.o(.text) for is_wifi_connected
    sys_misc.o(.text) refers to stm32f10x_gpio.o(.text) for GPIO_ReadInputDataBit
    sys_misc.o(.text) refers to debug.o(.data) for dbg_level
    sys_misc.o(.text) refers to sys_misc.o(.data) for .data
    sys_misc.o(.text) refers to tcpapp.o(.data) for p_netif
    sys_misc.o(.text) refers to sys_misc.o(.constdata) for .constdata
    sys_misc.o(.text) refers to main.o(.data) for i_socket
    wifi.o(.text) refers to timer.o(.text) for os_time_get
    wifi.o(.text) refers to printf8.o(i.__0printf$8) for __2printf
    wifi.o(.text) refers to memseta.o(.text) for __aeabi_memclr4
    wifi.o(.text) refers to usr_cfg.o(.text) for ieee80211_channel_to_frequency
    wifi.o(.text) refers to memory.o(.text) for mem_calloc_ex
    wifi.o(.text) refers to strcpy.o(.text) for strcpy
    wifi.o(.text) refers to printf8.o(i.__0snprintf$8) for __2snprintf
    wifi.o(.text) refers to strcat.o(.text) for strcat
    wifi.o(.text) refers to strlen.o(.text) for strlen
    wifi.o(.text) refers to wifi.o(.data) for .data
    wifi.o(.text) refers to wifi.o(.constdata) for .constdata
    wifi.o(.text) refers to memmove.o(.text) for __aeabi_memcpy
    wifi.o(.text) refers to debug.o(.data) for dbg_level
    wifi.o(.text) refers to usr_cfg.o(.data) for usr_scan_result_callback
    wifi.o(.text) refers to moal_main.o(.text) for woal_init_module
    wifi.o(.text) refers to sdcard.o(.bss) for func
    skbuff.o(.text) refers to memory.o(.text) for mem_free
    skbuff.o(.text) refers to timer.o(.text) for os_time_get
    skbuff.o(.text) refers to printf8.o(i.__0printf$8) for __2printf
    skbuff.o(.text) refers to atomic.o(.text) for atomic_sub_return
    skbuff.o(.text) refers to memmove.o(.text) for __aeabi_memcpy4
    skbuff.o(.text) refers to skbuff.o(.data) for .data
    skbuff.o(.text) refers to skbuff.o(.constdata) for .constdata
    skbuff.o(.text) refers to memseta.o(.text) for __aeabi_memclr4
    usr_cfg.o(.text) refers to timer.o(.text) for os_time_get
    usr_cfg.o(.text) refers to memmove.o(.text) for __aeabi_memcpy
    usr_cfg.o(.text) refers to memseta.o(.text) for __aeabi_memclr4
    usr_cfg.o(.text) refers to printf8.o(i.__0printf$8) for __2printf
    usr_cfg.o(.text) refers to memory.o(.text) for mem_calloc_ex
    usr_cfg.o(.text) refers to tolower.o(.text) for tolower
    usr_cfg.o(.text) refers to usr_cfg.o(.bss) for .bss
    usr_cfg.o(.text) refers to usr_cfg.o(.data) for .data
    usr_cfg.o(.text) refers to usr_cfg.o(.constdata) for .constdata
    usr_cfg.o(.text) refers to debug.o(.data) for dbg_level
    usr_cfg.o(.text) refers to skbuff.o(.text) for skb_reset_mac_header
    usr_cfg.o(.text) refers to ethernetif.o(.text) for ethernetif_input
    usr_cfg.o(.text) refers to tcpapp.o(.data) for p_netif
    test_wifi.o(.text) refers to memmove.o(.text) for __aeabi_memcpy
    test_wifi.o(.text) refers to timer.o(.text) for os_time_get
    test_wifi.o(.text) refers to printf8.o(i.__0printf$8) for __2printf
    test_wifi.o(.text) refers to wifi.o(.text) for wifi_scan
    test_wifi.o(.text) refers to netif.o(.text) for netif_set_down
    test_wifi.o(.text) refers to debug.o(.data) for dbg_level
    test_wifi.o(.text) refers to test_wifi.o(.data) for .data
    test_wifi.o(.text) refers to test_wifi.o(.constdata) for .constdata
    test_wifi.o(.text) refers to tcpapp.o(.data) for p_netif
    test_wifi.o(.text) refers to memory.o(.text) for mem_calloc_ex
    test_wifi.o(.data) refers to test_wifi.o(.conststring) for .conststring
    main.o(.text) refers to tolower.o(.text) for tolower
    main.o(.text) refers to sys_misc.o(.text) for show_sys_info
    main.o(.text) refers to test_wifi.o(.text) for test_scan
    main.o(.text) refers to test_tcpip.o(.text) for test_tcp_link
    main.o(.text) refers to memory.o(.text) for mem_slide_check
    main.o(.text) refers to debug.o(.text) for monitor_switch
    main.o(.text) refers to w25p80.o(.text) for test_write_firmware_to_spi_flash
    main.o(.text) refers to timer.o(.text) for os_time_get
    main.o(.text) refers to printf8.o(i.__0printf$8) for __2printf
    main.o(.text) refers to driver_misc.o(.text) for driver_misc_init
    main.o(.text) refers to os_core.o(.text) for OSStatInit
    main.o(.text) refers to usart.o(.text) for uart1_init
    main.o(.text) refers to stm32f10x_rcc.o(.text) for RCC_GetClocksFreq
    main.o(.text) refers to task.o(.text) for init_work_thread
    main.o(.text) refers to sdcard.o(.text) for SD_Init
    main.o(.text) refers to wifi.o(.text) for init_wifi
    main.o(.text) refers to monitor.o(.text) for init_monitor
    main.o(.text) refers to tcpapp.o(.text) for init_lwip
    main.o(.text) refers to dhcpd.o(.text) for init_udhcpd
    main.o(.text) refers to wait.o(.text) for init_event
    main.o(.text) refers to strlen.o(.text) for strlen
    main.o(.text) refers to debug.o(.data) for dbg_level
    main.o(.text) refers to main.o(.constdata) for .constdata
    main.o(.text) refers to main.o(.data) for .data
    main.o(.text) refers to usart.o(.bss) for buf_uart1
    test_tcpip.o(.text) refers to timer.o(.text) for os_time_get
    test_tcpip.o(.text) refers to printf8.o(i.__0printf$8) for __2printf
    test_tcpip.o(.text) refers to wifi.o(.text) for is_wifi_connected
    test_tcpip.o(.text) refers to tcpapp.o(.text) for tcp_link
    test_tcpip.o(.text) refers to ip_addr.o(.text) for ipaddr_addr
    test_tcpip.o(.text) refers to sockets.o(.text) for lwip_sendto
    test_tcpip.o(.text) refers to debug.o(.data) for dbg_level
    test_tcpip.o(.text) refers to test_tcpip.o(.constdata) for .constdata
    test_tcpip.o(.text) refers to test_tcpip.o(.data) for .data
    test_tcpip.o(.text) refers to mutex.o(.text) for mutex_lock
    test_tcpip.o(.text) refers to strlen.o(.text) for strlen
    test_tcpip.o(.text) refers to tcpapp.o(.data) for socket_mutex
    test_tcpip.o(.text) refers to test_tcpip.o(monitor_item_table) for monitor_item_table
    test_tcpip.o(.text) refers to memory.o(.text) for mem_malloc_ex
    test_tcpip.o(.text) refers to task.o(.text) for thread_myself
    test_tcpip.o(.text) refers to test_tcpip.o(.bss) for .bss
    test_tcpip.o(.text) refers to dns.o(.text) for dns_getserver
    test_tcpip.o(.text) refers to memseta.o(.text) for __aeabi_memclr4
    test_tcpip.o(.text) refers to dhcpd.o(.text) for handle_dhcp_rcv
    test_tcpip.o(.text) refers to sys_misc.o(.text) for led_switch
    test_tcpip.o(.text) refers to sockets.o(.data) for errno
    test_tcpip.o(monitor_item_table) refers to test_tcpip.o(.conststrlit) for .conststrlit
    tcpapp.o(.text) refers to timer.o(.text) for os_time_get
    tcpapp.o(.text) refers to printf8.o(i.__0printf$8) for __2printf
    tcpapp.o(.text) refers to ip_addr.o(.text) for ipaddr_addr
    tcpapp.o(.text) refers to netif.o(.text) for netif_remove
    tcpapp.o(.text) refers to dns.o(.text) for dns_setserver
    tcpapp.o(.text) refers to dhcp.o(.text) for dhcp_start
    tcpapp.o(.text) refers to mutex.o(.text) for mutex_lock
    tcpapp.o(.text) refers to api_lib.o(.text) for netconn_gethostbyname
    tcpapp.o(.text) refers to sockets.o(.text) for get_socket
    tcpapp.o(.text) refers to test_tcpip.o(.text) for close_socket
    tcpapp.o(.text) refers to debug.o(.data) for dbg_level
    tcpapp.o(.text) refers to tcpapp.o(.constdata) for .constdata
    tcpapp.o(.text) refers to tcpapp.o(.data) for .data
    tcpapp.o(.text) refers to tcpapp.o(.bss) for .bss
    tcpapp.o(.text) refers to tcpip.o(.text) for tcpip_input
    tcpapp.o(.text) refers to ethernetif.o(.text) for ethernetif_init
    tcpapp.o(.text) refers to sockets.o(.data) for errno
    tcpapp.o(.text) refers to sockets.o(.bss) for sockets
    tcpapp.o(.text) refers to task.o(.text) for thread_create
    webserver.o(.text) refers to timer.o(.text) for os_time_get
    webserver.o(.text) refers to printf8.o(i.__0printf$8) for __2printf
    webserver.o(.text) refers to webserver.o(.constdata) for .constdata
    debug.o(.text) refers to timer.o(.text) for os_time_get
    debug.o(.text) refers to printf8.o(i.__0printf$8) for __2printf
    debug.o(.text) refers to memory.o(.text) for mem_malloc_ex
    debug.o(.text) refers to usart.o(.text) for uart1_send
    debug.o(.text) refers to memseta.o(.text) for __aeabi_memclr
    debug.o(.text) refers to printf8.o(i.__0snprintf$8) for __2snprintf
    debug.o(.text) refers to strlen.o(.text) for strlen
    debug.o(.text) refers to strcat.o(.text) for strcat
    debug.o(.text) refers to debug.o(.data) for .data
    debug.o(.text) refers to debug.o(.constdata) for .constdata
    debug.o(.text) refers to debug.o(monitor_item_table) for monitor_item_table
    debug.o(.text) refers to os_core.o(.data) for OSCPUUsage
    debug.o(.text) refers to os_core.o(.bss) for OSEventTbl
    debug.o(.text) refers to os_core.o(.data) for OSTmrUsed
    debug.o(.text) refers to os_core.o(.bss) for OSQTbl
    debug.o(.text) refers to os_core.o(.data) for OSQFreeList
    debug.o(.text) refers to printf8.o(i.__0sprintf$8) for __2sprintf
    debug.o(.text) refers to os_cpu_a.o(.text) for OS_CPU_SR_Save
    debug.o(.text) refers to memmove.o(.text) for __aeabi_memcpy4
    debug.o(.text) refers to stats.o(.bss) for lwip_stats
    debug.o(.text) refers to sockets.o(.bss) for sockets
    debug.o(.data) refers to debug.o(.conststring) for .conststring
    debug.o(monitor_item_table) refers to debug.o(.conststrlit) for .conststrlit
    monitor.o(.text) refers to moal_main.o(.text) for woal_init_priv
    monitor.o(.text) refers to task.o(.text) for thread_create
    monitor.o(.text) refers to wifi.o(.data) for sta_wifi_dev
    monitor.o(.text) refers to debug.o(.data) for monitor_enable
    monitor.o(.text) refers to debug.o(.text) for dev_monitor_task
    entry.o(.ARM.Collect$$$$00000000) refers (Special) to entry7.o(.ARM.Collect$$$$00000007) for _main_init
    entry.o(.ARM.Collect$$$$00000000) refers (Special) to entry5.o(.ARM.Collect$$$$00000004) for _main_scatterload
    entry.o(.ARM.Collect$$$$00000000) refers (Special) to entry2.o(.ARM.Collect$$$$00000001) for _main_stk
    ctype_o.o(.text) refers to ctype_o.o(.constdata) for .constdata
    ctype_o.o(.constdata) refers to ctype_o.o(.constdata) for __ctype_table
    isalnum_o.o(.text) refers to ctype_o.o(.text) for __rt_ctype_table
    isalpha_o.o(.text) refers to ctype_o.o(.text) for __rt_ctype_table
    isblank_o.o(.text) refers to ctype_o.o(.constdata) for __ctype_table
    iscntrl_o.o(.text) refers to ctype_o.o(.text) for __rt_ctype_table
    isdigit_o.o(.text) refers to ctype_o.o(.text) for __rt_ctype_table
    isgraph_o.o(.text) refers to ctype_o.o(.text) for __rt_ctype_table
    islower_o.o(.text) refers to ctype_o.o(.text) for __rt_ctype_table
    isprint_o.o(.text) refers to ctype_o.o(.text) for __rt_ctype_table
    ispunct_o.o(.text) refers to ctype_o.o(.text) for __rt_ctype_table
    isspace_o.o(.text) refers to ctype_o.o(.text) for __rt_ctype_table
    isupper_o.o(.text) refers to ctype_o.o(.text) for __rt_ctype_table
    isxdigit_o.o(.text) refers to ctype_o.o(.text) for __rt_ctype_table
    printfb.o(i.__0fprintf$bare) refers to printfb.o(i._printf_core) for _printf_core
    printfb.o(i.__0fprintf$bare) refers to usart.o(.text) for fputc
    printfb.o(i.__0printf$bare) refers to printfb.o(i._printf_core) for _printf_core
    printfb.o(i.__0printf$bare) refers to usart.o(.text) for fputc
    printfb.o(i.__0printf$bare) refers to stdout.o(.data) for __stdout
    printfb.o(i.__0snprintf$bare) refers to printfb.o(i._printf_core) for _printf_core
    printfb.o(i.__0snprintf$bare) refers to printfb.o(i._snputc) for _snputc
    printfb.o(i.__0sprintf$bare) refers to printfb.o(i._printf_core) for _printf_core
    printfb.o(i.__0sprintf$bare) refers to printfb.o(i._sputc) for _sputc
    printfb.o(i.__0vfprintf$bare) refers to printfb.o(i._printf_core) for _printf_core
    printfb.o(i.__0vfprintf$bare) refers to usart.o(.text) for fputc
    printfb.o(i.__0vprintf$bare) refers to printfb.o(i._printf_core) for _printf_core
    printfb.o(i.__0vprintf$bare) refers to usart.o(.text) for fputc
    printfb.o(i.__0vprintf$bare) refers to stdout.o(.data) for __stdout
    printfb.o(i.__0vsnprintf$bare) refers to printfb.o(i._printf_core) for _printf_core
    printfb.o(i.__0vsnprintf$bare) refers to printfb.o(i._snputc) for _snputc
    printfb.o(i.__0vsprintf$bare) refers to printfb.o(i._printf_core) for _printf_core
    printfb.o(i.__0vsprintf$bare) refers to printfb.o(i._sputc) for _sputc
    printf0.o(i.__0fprintf$0) refers to printf0.o(i._printf_core) for _printf_core
    printf0.o(i.__0fprintf$0) refers to usart.o(.text) for fputc
    printf0.o(i.__0printf$0) refers to printf0.o(i._printf_core) for _printf_core
    printf0.o(i.__0printf$0) refers to usart.o(.text) for fputc
    printf0.o(i.__0printf$0) refers to stdout.o(.data) for __stdout
    printf0.o(i.__0snprintf$0) refers to printf0.o(i._printf_core) for _printf_core
    printf0.o(i.__0snprintf$0) refers to printf0.o(i._snputc) for _snputc
    printf0.o(i.__0sprintf$0) refers to printf0.o(i._printf_core) for _printf_core
    printf0.o(i.__0sprintf$0) refers to printf0.o(i._sputc) for _sputc
    printf0.o(i.__0vfprintf$0) refers to printf0.o(i._printf_core) for _printf_core
    printf0.o(i.__0vfprintf$0) refers to usart.o(.text) for fputc
    printf0.o(i.__0vprintf$0) refers to printf0.o(i._printf_core) for _printf_core
    printf0.o(i.__0vprintf$0) refers to usart.o(.text) for fputc
    printf0.o(i.__0vprintf$0) refers to stdout.o(.data) for __stdout
    printf0.o(i.__0vsnprintf$0) refers to printf0.o(i._printf_core) for _printf_core
    printf0.o(i.__0vsnprintf$0) refers to printf0.o(i._snputc) for _snputc
    printf0.o(i.__0vsprintf$0) refers to printf0.o(i._printf_core) for _printf_core
    printf0.o(i.__0vsprintf$0) refers to printf0.o(i._sputc) for _sputc
    printf1.o(i.__0fprintf$1) refers to printf1.o(i._printf_core) for _printf_core
    printf1.o(i.__0fprintf$1) refers to usart.o(.text) for fputc
    printf1.o(i.__0printf$1) refers to printf1.o(i._printf_core) for _printf_core
    printf1.o(i.__0printf$1) refers to usart.o(.text) for fputc
    printf1.o(i.__0printf$1) refers to stdout.o(.data) for __stdout
    printf1.o(i.__0snprintf$1) refers to printf1.o(i._printf_core) for _printf_core
    printf1.o(i.__0snprintf$1) refers to printf1.o(i._snputc) for _snputc
    printf1.o(i.__0sprintf$1) refers to printf1.o(i._printf_core) for _printf_core
    printf1.o(i.__0sprintf$1) refers to printf1.o(i._sputc) for _sputc
    printf1.o(i.__0vfprintf$1) refers to printf1.o(i._printf_core) for _printf_core
    printf1.o(i.__0vfprintf$1) refers to usart.o(.text) for fputc
    printf1.o(i.__0vprintf$1) refers to printf1.o(i._printf_core) for _printf_core
    printf1.o(i.__0vprintf$1) refers to usart.o(.text) for fputc
    printf1.o(i.__0vprintf$1) refers to stdout.o(.data) for __stdout
    printf1.o(i.__0vsnprintf$1) refers to printf1.o(i._printf_core) for _printf_core
    printf1.o(i.__0vsnprintf$1) refers to printf1.o(i._snputc) for _snputc
    printf1.o(i.__0vsprintf$1) refers to printf1.o(i._printf_core) for _printf_core
    printf1.o(i.__0vsprintf$1) refers to printf1.o(i._sputc) for _sputc
    printf1.o(i._printf_core) refers to uidiv.o(.text) for __aeabi_uidivmod
    printf2.o(i.__0fprintf$2) refers to printf2.o(i._printf_core) for _printf_core
    printf2.o(i.__0fprintf$2) refers to usart.o(.text) for fputc
    printf2.o(i.__0printf$2) refers to printf2.o(i._printf_core) for _printf_core
    printf2.o(i.__0printf$2) refers to usart.o(.text) for fputc
    printf2.o(i.__0printf$2) refers to stdout.o(.data) for __stdout
    printf2.o(i.__0snprintf$2) refers to printf2.o(i._printf_core) for _printf_core
    printf2.o(i.__0snprintf$2) refers to printf2.o(i._snputc) for _snputc
    printf2.o(i.__0sprintf$2) refers to printf2.o(i._printf_core) for _printf_core
    printf2.o(i.__0sprintf$2) refers to printf2.o(i._sputc) for _sputc
    printf2.o(i.__0vfprintf$2) refers to printf2.o(i._printf_core) for _printf_core
    printf2.o(i.__0vfprintf$2) refers to usart.o(.text) for fputc
    printf2.o(i.__0vprintf$2) refers to printf2.o(i._printf_core) for _printf_core
    printf2.o(i.__0vprintf$2) refers to usart.o(.text) for fputc
    printf2.o(i.__0vprintf$2) refers to stdout.o(.data) for __stdout
    printf2.o(i.__0vsnprintf$2) refers to printf2.o(i._printf_core) for _printf_core
    printf2.o(i.__0vsnprintf$2) refers to printf2.o(i._snputc) for _snputc
    printf2.o(i.__0vsprintf$2) refers to printf2.o(i._printf_core) for _printf_core
    printf2.o(i.__0vsprintf$2) refers to printf2.o(i._sputc) for _sputc
    printf3.o(i.__0fprintf$3) refers to printf3.o(i._printf_core) for _printf_core
    printf3.o(i.__0fprintf$3) refers to usart.o(.text) for fputc
    printf3.o(i.__0printf$3) refers to printf3.o(i._printf_core) for _printf_core
    printf3.o(i.__0printf$3) refers to usart.o(.text) for fputc
    printf3.o(i.__0printf$3) refers to stdout.o(.data) for __stdout
    printf3.o(i.__0snprintf$3) refers to printf3.o(i._printf_core) for _printf_core
    printf3.o(i.__0snprintf$3) refers to printf3.o(i._snputc) for _snputc
    printf3.o(i.__0sprintf$3) refers to printf3.o(i._printf_core) for _printf_core
    printf3.o(i.__0sprintf$3) refers to printf3.o(i._sputc) for _sputc
    printf3.o(i.__0vfprintf$3) refers to printf3.o(i._printf_core) for _printf_core
    printf3.o(i.__0vfprintf$3) refers to usart.o(.text) for fputc
    printf3.o(i.__0vprintf$3) refers to printf3.o(i._printf_core) for _printf_core
    printf3.o(i.__0vprintf$3) refers to usart.o(.text) for fputc
    printf3.o(i.__0vprintf$3) refers to stdout.o(.data) for __stdout
    printf3.o(i.__0vsnprintf$3) refers to printf3.o(i._printf_core) for _printf_core
    printf3.o(i.__0vsnprintf$3) refers to printf3.o(i._snputc) for _snputc
    printf3.o(i.__0vsprintf$3) refers to printf3.o(i._printf_core) for _printf_core
    printf3.o(i.__0vsprintf$3) refers to printf3.o(i._sputc) for _sputc
    printf3.o(i._printf_core) refers to uidiv.o(.text) for __aeabi_uidivmod
    printf4.o(i.__0fprintf$4) refers to printf4.o(i._printf_core) for _printf_core
    printf4.o(i.__0fprintf$4) refers to usart.o(.text) for fputc
    printf4.o(i.__0printf$4) refers to printf4.o(i._printf_core) for _printf_core
    printf4.o(i.__0printf$4) refers to usart.o(.text) for fputc
    printf4.o(i.__0printf$4) refers to stdout.o(.data) for __stdout
    printf4.o(i.__0snprintf$4) refers to printf4.o(i._printf_core) for _printf_core
    printf4.o(i.__0snprintf$4) refers to printf4.o(i._snputc) for _snputc
    printf4.o(i.__0sprintf$4) refers to printf4.o(i._printf_core) for _printf_core
    printf4.o(i.__0sprintf$4) refers to printf4.o(i._sputc) for _sputc
    printf4.o(i.__0vfprintf$4) refers to printf4.o(i._printf_core) for _printf_core
    printf4.o(i.__0vfprintf$4) refers to usart.o(.text) for fputc
    printf4.o(i.__0vprintf$4) refers to printf4.o(i._printf_core) for _printf_core
    printf4.o(i.__0vprintf$4) refers to usart.o(.text) for fputc
    printf4.o(i.__0vprintf$4) refers to stdout.o(.data) for __stdout
    printf4.o(i.__0vsnprintf$4) refers to printf4.o(i._printf_core) for _printf_core
    printf4.o(i.__0vsnprintf$4) refers to printf4.o(i._snputc) for _snputc
    printf4.o(i.__0vsprintf$4) refers to printf4.o(i._printf_core) for _printf_core
    printf4.o(i.__0vsprintf$4) refers to printf4.o(i._sputc) for _sputc
    printf4.o(i._printf_core) refers to uldiv.o(.text) for __aeabi_uldivmod
    printf5.o(i.__0fprintf$5) refers to printf5.o(i._printf_core) for _printf_core
    printf5.o(i.__0fprintf$5) refers to usart.o(.text) for fputc
    printf5.o(i.__0printf$5) refers to printf5.o(i._printf_core) for _printf_core
    printf5.o(i.__0printf$5) refers to usart.o(.text) for fputc
    printf5.o(i.__0printf$5) refers to stdout.o(.data) for __stdout
    printf5.o(i.__0snprintf$5) refers to printf5.o(i._printf_core) for _printf_core
    printf5.o(i.__0snprintf$5) refers to printf5.o(i._snputc) for _snputc
    printf5.o(i.__0sprintf$5) refers to printf5.o(i._printf_core) for _printf_core
    printf5.o(i.__0sprintf$5) refers to printf5.o(i._sputc) for _sputc
    printf5.o(i.__0vfprintf$5) refers to printf5.o(i._printf_core) for _printf_core
    printf5.o(i.__0vfprintf$5) refers to usart.o(.text) for fputc
    printf5.o(i.__0vprintf$5) refers to printf5.o(i._printf_core) for _printf_core
    printf5.o(i.__0vprintf$5) refers to usart.o(.text) for fputc
    printf5.o(i.__0vprintf$5) refers to stdout.o(.data) for __stdout
    printf5.o(i.__0vsnprintf$5) refers to printf5.o(i._printf_core) for _printf_core
    printf5.o(i.__0vsnprintf$5) refers to printf5.o(i._snputc) for _snputc
    printf5.o(i.__0vsprintf$5) refers to printf5.o(i._printf_core) for _printf_core
    printf5.o(i.__0vsprintf$5) refers to printf5.o(i._sputc) for _sputc
    printf5.o(i._printf_core) refers to uldiv.o(.text) for __aeabi_uldivmod
    printf6.o(i.__0fprintf$6) refers to printf6.o(i._printf_core) for _printf_core
    printf6.o(i.__0fprintf$6) refers to usart.o(.text) for fputc
    printf6.o(i.__0printf$6) refers to printf6.o(i._printf_core) for _printf_core
    printf6.o(i.__0printf$6) refers to usart.o(.text) for fputc
    printf6.o(i.__0printf$6) refers to stdout.o(.data) for __stdout
    printf6.o(i.__0snprintf$6) refers to printf6.o(i._printf_core) for _printf_core
    printf6.o(i.__0snprintf$6) refers to printf6.o(i._snputc) for _snputc
    printf6.o(i.__0sprintf$6) refers to printf6.o(i._printf_core) for _printf_core
    printf6.o(i.__0sprintf$6) refers to printf6.o(i._sputc) for _sputc
    printf6.o(i.__0vfprintf$6) refers to printf6.o(i._printf_core) for _printf_core
    printf6.o(i.__0vfprintf$6) refers to usart.o(.text) for fputc
    printf6.o(i.__0vprintf$6) refers to printf6.o(i._printf_core) for _printf_core
    printf6.o(i.__0vprintf$6) refers to usart.o(.text) for fputc
    printf6.o(i.__0vprintf$6) refers to stdout.o(.data) for __stdout
    printf6.o(i.__0vsnprintf$6) refers to printf6.o(i._printf_core) for _printf_core
    printf6.o(i.__0vsnprintf$6) refers to printf6.o(i._snputc) for _snputc
    printf6.o(i.__0vsprintf$6) refers to printf6.o(i._printf_core) for _printf_core
    printf6.o(i.__0vsprintf$6) refers to printf6.o(i._sputc) for _sputc
    printf6.o(i._printf_core) refers to printf6.o(i._printf_pre_padding) for _printf_pre_padding
    printf6.o(i._printf_core) refers to uidiv.o(.text) for __aeabi_uidivmod
    printf6.o(i._printf_core) refers to printf6.o(i._printf_post_padding) for _printf_post_padding
    printf7.o(i.__0fprintf$7) refers to printf7.o(i._printf_core) for _printf_core
    printf7.o(i.__0fprintf$7) refers to usart.o(.text) for fputc
    printf7.o(i.__0printf$7) refers to printf7.o(i._printf_core) for _printf_core
    printf7.o(i.__0printf$7) refers to usart.o(.text) for fputc
    printf7.o(i.__0printf$7) refers to stdout.o(.data) for __stdout
    printf7.o(i.__0snprintf$7) refers to printf7.o(i._printf_core) for _printf_core
    printf7.o(i.__0snprintf$7) refers to printf7.o(i._snputc) for _snputc
    printf7.o(i.__0sprintf$7) refers to printf7.o(i._printf_core) for _printf_core
    printf7.o(i.__0sprintf$7) refers to printf7.o(i._sputc) for _sputc
    printf7.o(i.__0vfprintf$7) refers to printf7.o(i._printf_core) for _printf_core
    printf7.o(i.__0vfprintf$7) refers to usart.o(.text) for fputc
    printf7.o(i.__0vprintf$7) refers to printf7.o(i._printf_core) for _printf_core
    printf7.o(i.__0vprintf$7) refers to usart.o(.text) for fputc
    printf7.o(i.__0vprintf$7) refers to stdout.o(.data) for __stdout
    printf7.o(i.__0vsnprintf$7) refers to printf7.o(i._printf_core) for _printf_core
    printf7.o(i.__0vsnprintf$7) refers to printf7.o(i._snputc) for _snputc
    printf7.o(i.__0vsprintf$7) refers to printf7.o(i._printf_core) for _printf_core
    printf7.o(i.__0vsprintf$7) refers to printf7.o(i._sputc) for _sputc
    printf7.o(i._printf_core) refers to printf7.o(i._printf_pre_padding) for _printf_pre_padding
    printf7.o(i._printf_core) refers to uldiv.o(.text) for __aeabi_uldivmod
    printf7.o(i._printf_core) refers to printf7.o(i._printf_post_padding) for _printf_post_padding
    printf8.o(i.__0fprintf$8) refers to printf8.o(i._printf_core) for _printf_core
    printf8.o(i.__0fprintf$8) refers to usart.o(.text) for fputc
    printf8.o(i.__0printf$8) refers to printf8.o(i._printf_core) for _printf_core
    printf8.o(i.__0printf$8) refers to usart.o(.text) for fputc
    printf8.o(i.__0printf$8) refers to stdout.o(.data) for __stdout
    printf8.o(i.__0snprintf$8) refers to printf8.o(i._printf_core) for _printf_core
    printf8.o(i.__0snprintf$8) refers to printf8.o(i._snputc) for _snputc
    printf8.o(i.__0sprintf$8) refers to printf8.o(i._printf_core) for _printf_core
    printf8.o(i.__0sprintf$8) refers to printf8.o(i._sputc) for _sputc
    printf8.o(i.__0vfprintf$8) refers to printf8.o(i._printf_core) for _printf_core
    printf8.o(i.__0vfprintf$8) refers to usart.o(.text) for fputc
    printf8.o(i.__0vprintf$8) refers to printf8.o(i._printf_core) for _printf_core
    printf8.o(i.__0vprintf$8) refers to usart.o(.text) for fputc
    printf8.o(i.__0vprintf$8) refers to stdout.o(.data) for __stdout
    printf8.o(i.__0vsnprintf$8) refers to printf8.o(i._printf_core) for _printf_core
    printf8.o(i.__0vsnprintf$8) refers to printf8.o(i._snputc) for _snputc
    printf8.o(i.__0vsprintf$8) refers to printf8.o(i._printf_core) for _printf_core
    printf8.o(i.__0vsprintf$8) refers to printf8.o(i._sputc) for _sputc
    printf8.o(i._printf_core) refers to printf8.o(i._printf_pre_padding) for _printf_pre_padding
    printf8.o(i._printf_core) refers to uldiv.o(.text) for __aeabi_uldivmod
    printf8.o(i._printf_core) refers to printf8.o(i._printf_post_padding) for _printf_post_padding
    printfa.o(i.__0fprintf) refers (Special) to iusefp.o(.text) for __I$use$fp
    printfa.o(i.__0fprintf) refers to printfa.o(i._printf_core) for _printf_core
    printfa.o(i.__0fprintf) refers to usart.o(.text) for fputc
    printfa.o(i.__0printf) refers (Special) to iusefp.o(.text) for __I$use$fp
    printfa.o(i.__0printf) refers to printfa.o(i._printf_core) for _printf_core
    printfa.o(i.__0printf) refers to usart.o(.text) for fputc
    printfa.o(i.__0printf) refers to stdout.o(.data) for __stdout
    printfa.o(i.__0snprintf) refers (Special) to iusefp.o(.text) for __I$use$fp
    printfa.o(i.__0snprintf) refers to printfa.o(i._printf_core) for _printf_core
    printfa.o(i.__0snprintf) refers to printfa.o(i._snputc) for _snputc
    printfa.o(i.__0sprintf) refers (Special) to iusefp.o(.text) for __I$use$fp
    printfa.o(i.__0sprintf) refers to printfa.o(i._printf_core) for _printf_core
    printfa.o(i.__0sprintf) refers to printfa.o(i._sputc) for _sputc
    printfa.o(i.__0vfprintf) refers (Special) to iusefp.o(.text) for __I$use$fp
    printfa.o(i.__0vfprintf) refers to printfa.o(i._printf_core) for _printf_core
    printfa.o(i.__0vfprintf) refers to usart.o(.text) for fputc
    printfa.o(i.__0vprintf) refers (Special) to iusefp.o(.text) for __I$use$fp
    printfa.o(i.__0vprintf) refers to printfa.o(i._printf_core) for _printf_core
    printfa.o(i.__0vprintf) refers to usart.o(.text) for fputc
    printfa.o(i.__0vprintf) refers to stdout.o(.data) for __stdout
    printfa.o(i.__0vsnprintf) refers (Special) to iusefp.o(.text) for __I$use$fp
    printfa.o(i.__0vsnprintf) refers to printfa.o(i._printf_core) for _printf_core
    printfa.o(i.__0vsnprintf) refers to printfa.o(i._snputc) for _snputc
    printfa.o(i.__0vsprintf) refers (Special) to iusefp.o(.text) for __I$use$fp
    printfa.o(i.__0vsprintf) refers to printfa.o(i._printf_core) for _printf_core
    printfa.o(i.__0vsprintf) refers to printfa.o(i._sputc) for _sputc
    printfa.o(i._fp_digits) refers (Special) to iusefp.o(.text) for __I$use$fp
    printfa.o(i._fp_digits) refers to dmul.o(.text) for __aeabi_dmul
    printfa.o(i._fp_digits) refers to ddiv.o(.text) for __aeabi_ddiv
    printfa.o(i._fp_digits) refers to cdrcmple.o(.text) for __aeabi_cdrcmple
    printfa.o(i._fp_digits) refers to dadd.o(.text) for __aeabi_dadd
    printfa.o(i._fp_digits) refers to dfixul.o(.text) for __aeabi_d2ulz
    printfa.o(i._fp_digits) refers to uldiv.o(.text) for __aeabi_uldivmod
    printfa.o(i._printf_core) refers (Special) to iusefp.o(.text) for __I$use$fp
    printfa.o(i._printf_core) refers to printfa.o(i._printf_pre_padding) for _printf_pre_padding
    printfa.o(i._printf_core) refers to uldiv.o(.text) for __aeabi_uldivmod
    printfa.o(i._printf_core) refers to printfa.o(i._printf_post_padding) for _printf_post_padding
    printfa.o(i._printf_core) refers to printfa.o(i._fp_digits) for _fp_digits
    printfa.o(i._printf_core) refers to uidiv.o(.text) for __aeabi_uidivmod
    printfa.o(i._printf_post_padding) refers (Special) to iusefp.o(.text) for __I$use$fp
    printfa.o(i._printf_pre_padding) refers (Special) to iusefp.o(.text) for __I$use$fp
    printfa.o(i._snputc) refers (Special) to iusefp.o(.text) for __I$use$fp
    printfa.o(i._sputc) refers (Special) to iusefp.o(.text) for __I$use$fp
    mallocr.o(i.__free$realloc) refers to mvars.o(.data) for __microlib_freelist
    mallocr.o(i.__malloc$realloc) refers to mallocr.o(i.internal_alloc) for internal_alloc
    mallocr.o(i.__malloc$realloc) refers to mvars.o(.data) for __microlib_freelist_initialised
    mallocr.o(i.__malloc$realloc) refers to startup_stm32f10x_hd.o(HEAP) for __heap_base
    mallocr.o(i.__malloc$realloc) refers to mvars.o(.data) for __microlib_freelist
    mallocr.o(i.internal_alloc) refers to memmove.o(.text) for __aeabi_memcpy
    mallocr.o(i.internal_alloc) refers to mvars.o(.data) for __microlib_freelist
    mallocr.o(i.realloc) refers to mallocr.o(i.__free$realloc) for __free$realloc
    mallocr.o(i.realloc) refers to mallocr.o(i.internal_alloc) for internal_alloc
    mallocr.o(i.realloc) refers to mallocr.o(i.__malloc$realloc) for __malloc$realloc
    mallocr.o(i.realloc) refers to mvars.o(.data) for __microlib_freelist
    mallocra.o(i.__aligned_malloc$realloc) refers to mallocra.o(i.internal_alloc) for internal_alloc
    mallocra.o(i.__aligned_malloc$realloc) refers to mvars.o(.data) for __microlib_freelist_initialised
    mallocra.o(i.__aligned_malloc$realloc) refers to startup_stm32f10x_hd.o(HEAP) for __heap_base
    mallocra.o(i.__aligned_malloc$realloc) refers to mvars.o(.data) for __microlib_freelist
    mallocra.o(i.__free$realloc$memalign) refers to mvars.o(.data) for __microlib_freelist
    mallocra.o(i.__malloc$realloc$memalign) refers to mallocra.o(i.__aligned_malloc$realloc) for __aligned_malloc$realloc
    mallocra.o(i.__realloc$memalign) refers to mallocra.o(i.__free$realloc$memalign) for __free$realloc$memalign
    mallocra.o(i.__realloc$memalign) refers to mallocra.o(i.internal_alloc) for internal_alloc
    mallocra.o(i.__realloc$memalign) refers to mallocra.o(i.__malloc$realloc$memalign) for __malloc$realloc$memalign
    mallocra.o(i.__realloc$memalign) refers to mvars.o(.data) for __microlib_freelist
    mallocra.o(i.internal_alloc) refers to memmove.o(.text) for __aeabi_memcpy
    mallocra.o(i.internal_alloc) refers to mvars.o(.data) for __microlib_freelist
    atoi.o(.text) refers to errno.o(i.__aeabi_errno_addr) for __aeabi_errno_addr
    atoi.o(.text) refers to strtol.o(.text) for strtol
    entry2.o(.ARM.Collect$$$$00000001) refers to entry2.o(.ARM.Collect$$$$00002712) for __lit__00000000
    entry2.o(.ARM.Collect$$$$00002712) refers to startup_stm32f10x_hd.o(STACK) for __initial_sp
    entry2.o(__vectab_stack_and_reset_area) refers to startup_stm32f10x_hd.o(STACK) for __initial_sp
    entry2.o(__vectab_stack_and_reset_area) refers to entry.o(.ARM.Collect$$$$00000000) for __main
    entry5.o(.ARM.Collect$$$$00000004) refers to init.o(.text) for __scatterload
    entry7.o(.ARM.Collect$$$$00000007) refers to main.o(.text) for main
    uldiv.o(.text) refers to llushr.o(.text) for __aeabi_llsr
    uldiv.o(.text) refers to llshl.o(.text) for __aeabi_llsl
    errno.o(i.__aeabi_errno_addr) refers to errno.o(.data) for .data
    errno.o(i.__read_errno) refers to errno.o(.data) for .data
    errno.o(i.__set_errno) refers to errno.o(.data) for .data
    strtol.o(.text) refers to ctype_o.o(.text) for __rt_ctype_table
    strtol.o(.text) refers to _strtoul.o(.text) for _strtoul
    strtol.o(.text) refers to errno.o(i.__aeabi_errno_addr) for __aeabi_errno_addr
    dadd.o(.text) refers to llshl.o(.text) for __aeabi_llsl
    dadd.o(.text) refers to llsshr.o(.text) for __aeabi_lasr
    dadd.o(.text) refers to depilogue.o(.text) for _double_epilogue
    dmul.o(.text) refers to depilogue.o(.text) for _double_epilogue
    ddiv.o(.text) refers to depilogue.o(.text) for _double_round
    dfixul.o(.text) refers to llushr.o(.text) for __aeabi_llsr
    dfixul.o(.text) refers to llshl.o(.text) for __aeabi_llsl
    init.o(.text) refers to entry5.o(.ARM.Collect$$$$00000004) for __main_after_scatterload
    _strtoul.o(.text) refers to _chval.o(.text) for _chval
    _strtoul.o(.text) refers to errno.o(i.__aeabi_errno_addr) for __aeabi_errno_addr
    depilogue.o(.text) refers to llshl.o(.text) for __aeabi_llsl
    depilogue.o(.text) refers to llushr.o(.text) for __aeabi_llsr
    sdcard.o(i.local_irq_save) refers to os_cpu_a.o(.text) for OS_CPU_SR_Save
    usart.o(i.enter_interrupt) refers to os_core.o(.data) for OSIntNesting
    usart.o(i.exit_interrupt) refers to os_core.o(.text) for OSIntExit
    usart.o(i.exit_interrupt) refers to os_core.o(.data) for OSIntNesting


==============================================================================

Removing Unused input sections from the image.

    Removing stm32f10x_adc.o(.text), (804 bytes).
    Removing stm32f10x_dac.o(.text), (276 bytes).
    Removing stm32f10x_exti.o(.text), (284 bytes).
    Removing stm32f10x_flash.o(.text), (1280 bytes).
    Removing stm32f10x_tim.o(.text), (2186 bytes).
    Removing stm32f10x_wwdg.o(.text), (120 bytes).
    Removing core_cm3.o(.emb_text), (36 bytes).
    Removing system_stm32f10x.o(.constdata), (4 bytes).
    Removing system_stm32f10x.o(.constdata), (4 bytes).
    Removing system_stm32f10x.o(.constdata), (4 bytes).
    Removing system_stm32f10x.o(.constdata), (4 bytes).
    Removing usart.o(.data), (4 bytes).
    Removing usart.o(.data), (4 bytes).
    Removing usart.o(.data), (4 bytes).
    Removing os_mbox.o(.text), (856 bytes).
    Removing os_mutex.o(.text), (1276 bytes).
    Removing mbox.o(.text), (384 bytes).
    Removing msg_q.o(.text), (936 bytes).
    Removing msg_q.o(.bss), (128 bytes).
    Removing msg_q.o(.constdata), (7 bytes).
    Removing sem.o(.text), (384 bytes).
    Removing netdb.o(.text), (656 bytes).
    Removing netdb.o(.bss), (20 bytes).
    Removing netdb.o(.constdata), (17 bytes).
    Removing netdb.o(.data), (20 bytes).
    Removing sys.o(.text), (34 bytes).
    Removing moal_main.o(.constdata), (4 bytes).
    Removing moal_main.o(.constdata), (4 bytes).
    Removing moal_main.o(.constdata), (4 bytes).
    Removing moal_main.o(.constdata), (4 bytes).
    Removing moal_main.o(.constdata), (4 bytes).
    Removing moal_main.o(.constdata), (4 bytes).
    Removing moal_main.o(.constdata), (4 bytes).
    Removing moal_main.o(.data), (4 bytes).
    Removing moal_main.o(.data), (4 bytes).
    Removing wifi.o(.data), (4 bytes).
    Removing test_wifi.o(.data), (11 bytes).
    Removing webserver.o(.text), (196 bytes).
    Removing webserver.o(.constdata), (449 bytes).
    Removing webserver.o(.constdata), (6171 bytes).
    Removing webserver.o(.constdata), (2278 bytes).
    Removing webserver.o(.constdata), (61 bytes).

42 unused section(s) (total 18938 bytes) removed from the image.

==============================================================================

Image Symbol Table

    Local Symbols

    Symbol Name                              Value     Ov Type        Size  Object(Section)

    ../../../cmprslib/zerorunl2.c            0x00000000   Number         0  __dczerorl2.o ABSOLUTE
    ../../microlib/ctype/ctype.c             0x00000000   Number         0  isdigit_o.o ABSOLUTE
    ../../microlib/ctype/ctype.c             0x00000000   Number         0  islower_o.o ABSOLUTE
    ../../microlib/ctype/ctype.c             0x00000000   Number         0  isgraph_o.o ABSOLUTE
    ../../microlib/ctype/ctype.c             0x00000000   Number         0  iscntrl_o.o ABSOLUTE
    ../../microlib/ctype/ctype.c             0x00000000   Number         0  isblank_o.o ABSOLUTE
    ../../microlib/ctype/ctype.c             0x00000000   Number         0  isalpha_o.o ABSOLUTE
    ../../microlib/ctype/ctype.c             0x00000000   Number         0  isalnum_o.o ABSOLUTE
    ../../microlib/ctype/ctype.c             0x00000000   Number         0  ctype_o.o ABSOLUTE
    ../../microlib/ctype/ctype.c             0x00000000   Number         0  isupper_o.o ABSOLUTE
    ../../microlib/ctype/ctype.c             0x00000000   Number         0  isxdigit_o.o ABSOLUTE
    ../../microlib/ctype/ctype.c             0x00000000   Number         0  isspace_o.o ABSOLUTE
    ../../microlib/ctype/ctype.c             0x00000000   Number         0  ispunct_o.o ABSOLUTE
    ../../microlib/ctype/ctype.c             0x00000000   Number         0  isprint_o.o ABSOLUTE
    ../../microlib/ctype/tolower.c           0x00000000   Number         0  tolower.o ABSOLUTE
    ../../microlib/division.c                0x00000000   Number         0  uldiv.o ABSOLUTE
    ../../microlib/division.c                0x00000000   Number         0  uidiv.o ABSOLUTE
    ../../microlib/errno.c                   0x00000000   Number         0  errno.o ABSOLUTE
    ../../microlib/fpadd.c                   0x00000000   Number         0  dadd.o ABSOLUTE
    ../../microlib/fpdiv.c                   0x00000000   Number         0  ddiv.o ABSOLUTE
    ../../microlib/fpepilogue.c              0x00000000   Number         0  depilogue.o ABSOLUTE
    ../../microlib/fpfix.c                   0x00000000   Number         0  dfixul.o ABSOLUTE
    ../../microlib/fpmul.c                   0x00000000   Number         0  dmul.o ABSOLUTE
    ../../microlib/init/entry.s              0x00000000   Number         0  entry7.o ABSOLUTE
    ../../microlib/init/entry.s              0x00000000   Number         0  entry5.o ABSOLUTE
    ../../microlib/init/entry.s              0x00000000   Number         0  entry2.o ABSOLUTE
    ../../microlib/init/entry.s              0x00000000   Number         0  entry.o ABSOLUTE
    ../../microlib/longlong.c                0x00000000   Number         0  llshl.o ABSOLUTE
    ../../microlib/longlong.c                0x00000000   Number         0  llushr.o ABSOLUTE
    ../../microlib/longlong.c                0x00000000   Number         0  llsshr.o ABSOLUTE
    ../../microlib/malloc/malloc.c           0x00000000   Number         0  mallocra.o ABSOLUTE
    ../../microlib/malloc/malloc.c           0x00000000   Number         0  mallocr.o ABSOLUTE
    ../../microlib/malloc/mvars.c            0x00000000   Number         0  mvars.o ABSOLUTE
    ../../microlib/printf/printf.c           0x00000000   Number         0  printf6.o ABSOLUTE
    ../../microlib/printf/printf.c           0x00000000   Number         0  printf2.o ABSOLUTE
    ../../microlib/printf/printf.c           0x00000000   Number         0  printf3.o ABSOLUTE
    ../../microlib/printf/printf.c           0x00000000   Number         0  printfb.o ABSOLUTE
    ../../microlib/printf/printf.c           0x00000000   Number         0  printf0.o ABSOLUTE
    ../../microlib/printf/printf.c           0x00000000   Number         0  printf5.o ABSOLUTE
    ../../microlib/printf/printf.c           0x00000000   Number         0  printf1.o ABSOLUTE
    ../../microlib/printf/printf.c           0x00000000   Number         0  printf8.o ABSOLUTE
    ../../microlib/printf/printf.c           0x00000000   Number         0  printf4.o ABSOLUTE
    ../../microlib/printf/printf.c           0x00000000   Number         0  printfa.o ABSOLUTE
    ../../microlib/printf/printf.c           0x00000000   Number         0  printf7.o ABSOLUTE
    ../../microlib/printf/stubs.s            0x00000000   Number         0  stubs.o ABSOLUTE
    ../../microlib/stdio/streams.c           0x00000000   Number         0  stdout.o ABSOLUTE
    ../../microlib/string/memcmp.c           0x00000000   Number         0  memcmp.o ABSOLUTE
    ../../microlib/string/memcpy.c           0x00000000   Number         0  memmovec.o ABSOLUTE
    ../../microlib/string/memcpy.c           0x00000000   Number         0  memcpyc.o ABSOLUTE
    ../../microlib/string/memcpy.c           0x00000000   Number         0  memcpyb.o ABSOLUTE
    ../../microlib/string/memcpy.c           0x00000000   Number         0  memmoveb.o ABSOLUTE
    ../../microlib/string/memcpy.c           0x00000000   Number         0  memcpya.o ABSOLUTE
    ../../microlib/string/memcpy.c           0x00000000   Number         0  memcpy.o ABSOLUTE
    ../../microlib/string/memcpy.c           0x00000000   Number         0  memmovea.o ABSOLUTE
    ../../microlib/string/memcpy.c           0x00000000   Number         0  memmove.o ABSOLUTE
    ../../microlib/string/memset.c           0x00000000   Number         0  memseta.o ABSOLUTE
    ../../microlib/string/memset.c           0x00000000   Number         0  memset.o ABSOLUTE
    ../../microlib/string/strcat.c           0x00000000   Number         0  strcat.o ABSOLUTE
    ../../microlib/string/strcmp.c           0x00000000   Number         0  strcmp.o ABSOLUTE
    ../../microlib/string/strcpy.c           0x00000000   Number         0  strcpy.o ABSOLUTE
    ../../microlib/string/strlen.c           0x00000000   Number         0  strlen.o ABSOLUTE
    ../../microlib/string/strncmp.c          0x00000000   Number         0  strncmp.o ABSOLUTE
    ../../microlib/string/strncpy.c          0x00000000   Number         0  strncpy.o ABSOLUTE
    ../../microlib/stubs.s                   0x00000000   Number         0  iusefp.o ABSOLUTE
    ../../scanf.c                            0x00000000   Number         0  strtol.o ABSOLUTE
    ../../scanf.c                            0x00000000   Number         0  _strtoul.o ABSOLUTE
    ../../scanf.c                            0x00000000   Number         0  atoi.o ABSOLUTE
    ../../scanf.c                            0x00000000   Number         0  _chval.o ABSOLUTE
    ..\\bsp\\stm32f1xx\\CMSIS\\core_cm3.c    0x00000000   Number         0  core_cm3.o ABSOLUTE
    ..\app\src\debug.c                       0x00000000   Number         0  debug.o ABSOLUTE
    ..\app\src\main.c                        0x00000000   Number         0  main.o ABSOLUTE
    ..\app\src\sys_misc.c                    0x00000000   Number         0  sys_misc.o ABSOLUTE
    ..\app\src\tcpapp.c                      0x00000000   Number         0  tcpapp.o ABSOLUTE
    ..\app\src\test_tcpip.c                  0x00000000   Number         0  test_tcpip.o ABSOLUTE
    ..\app\src\test_wifi.c                   0x00000000   Number         0  test_wifi.o ABSOLUTE
    ..\app\src\webserver.c                   0x00000000   Number         0  webserver.o ABSOLUTE
    ..\app\src\wifi.c                        0x00000000   Number         0  wifi.o ABSOLUTE
    ..\bsp\stm32f1xx\CMSIS\core_cm3.c        0x00000000   Number         0  core_cm3.o ABSOLUTE
    ..\bsp\stm32f1xx\CMSIS\startup\startup_stm32f10x_hd.s 0x00000000   Number         0  startup_stm32f10x_hd.o ABSOLUTE
    ..\bsp\stm32f1xx\CMSIS\system_stm32f10x.c 0x00000000   Number         0  system_stm32f10x.o ABSOLUTE
    ..\bsp\stm32f1xx\FWlib\src\misc.c        0x00000000   Number         0  misc.o ABSOLUTE
    ..\bsp\stm32f1xx\FWlib\src\stm32f10x_adc.c 0x00000000   Number         0  stm32f10x_adc.o ABSOLUTE
    ..\bsp\stm32f1xx\FWlib\src\stm32f10x_dac.c 0x00000000   Number         0  stm32f10x_dac.o ABSOLUTE
    ..\bsp\stm32f1xx\FWlib\src\stm32f10x_dma.c 0x00000000   Number         0  stm32f10x_dma.o ABSOLUTE
    ..\bsp\stm32f1xx\FWlib\src\stm32f10x_exti.c 0x00000000   Number         0  stm32f10x_exti.o ABSOLUTE
    ..\bsp\stm32f1xx\FWlib\src\stm32f10x_flash.c 0x00000000   Number         0  stm32f10x_flash.o ABSOLUTE
    ..\bsp\stm32f1xx\FWlib\src\stm32f10x_gpio.c 0x00000000   Number         0  stm32f10x_gpio.o ABSOLUTE
    ..\bsp\stm32f1xx\FWlib\src\stm32f10x_rcc.c 0x00000000   Number         0  stm32f10x_rcc.o ABSOLUTE
    ..\bsp\stm32f1xx\FWlib\src\stm32f10x_sdio.c 0x00000000   Number         0  stm32f10x_sdio.o ABSOLUTE
    ..\bsp\stm32f1xx\FWlib\src\stm32f10x_spi.c 0x00000000   Number         0  stm32f10x_spi.o ABSOLUTE
    ..\bsp\stm32f1xx\FWlib\src\stm32f10x_tim.c 0x00000000   Number         0  stm32f10x_tim.o ABSOLUTE
    ..\bsp\stm32f1xx\FWlib\src\stm32f10x_usart.c 0x00000000   Number         0  stm32f10x_usart.o ABSOLUTE
    ..\bsp\stm32f1xx\FWlib\src\stm32f10x_wwdg.c 0x00000000   Number         0  stm32f10x_wwdg.o ABSOLUTE
    ..\drivers\stm32f10x\src\driver_misc.c   0x00000000   Number         0  driver_misc.o ABSOLUTE
    ..\drivers\stm32f10x\src\sdcard.c        0x00000000   Number         0  sdcard.o ABSOLUTE
    ..\drivers\stm32f10x\src\usart.c         0x00000000   Number         0  usart.o ABSOLUTE
    ..\drivers\stm32f10x\src\w25p80.c        0x00000000   Number         0  w25p80.o ABSOLUTE
    ..\kernel\api\src\atomic.c               0x00000000   Number         0  atomic.o ABSOLUTE
    ..\kernel\api\src\mbox.c                 0x00000000   Number         0  mbox.o ABSOLUTE
    ..\kernel\api\src\memory.c               0x00000000   Number         0  memory.o ABSOLUTE
    ..\kernel\api\src\msg_q.c                0x00000000   Number         0  msg_q.o ABSOLUTE
    ..\kernel\api\src\mutex.c                0x00000000   Number         0  mutex.o ABSOLUTE
    ..\kernel\api\src\sem.c                  0x00000000   Number         0  sem.o ABSOLUTE
    ..\kernel\api\src\task.c                 0x00000000   Number         0  task.o ABSOLUTE
    ..\kernel\api\src\timer.c                0x00000000   Number         0  timer.o ABSOLUTE
    ..\kernel\api\src\wait.c                 0x00000000   Number         0  wait.o ABSOLUTE
    ..\kernel\ucos\uCOS-II\Ports\ARM-Cortex-M3\IAR\os_cpu_a.asm 0x00000000   Number         0  os_cpu_a.o ABSOLUTE
    ..\kernel\ucos\uCOS-II\Ports\ARM-Cortex-M3\IAR\os_cpu_c.c 0x00000000   Number         0  os_cpu_c.o ABSOLUTE
    ..\kernel\ucos\uCOS-II\Source\os_core.c  0x00000000   Number         0  os_core.o ABSOLUTE
    ..\kernel\ucos\uCOS-II\Source\os_flag.c  0x00000000   Number         0  os_flag.o ABSOLUTE
    ..\kernel\ucos\uCOS-II\Source\os_mbox.c  0x00000000   Number         0  os_mbox.o ABSOLUTE
    ..\kernel\ucos\uCOS-II\Source\os_mem.c   0x00000000   Number         0  os_mem.o ABSOLUTE
    ..\kernel\ucos\uCOS-II\Source\os_mutex.c 0x00000000   Number         0  os_mutex.o ABSOLUTE
    ..\kernel\ucos\uCOS-II\Source\os_q.c     0x00000000   Number         0  os_q.o ABSOLUTE
    ..\kernel\ucos\uCOS-II\Source\os_sem.c   0x00000000   Number         0  os_sem.o ABSOLUTE
    ..\kernel\ucos\uCOS-II\Source\os_task.c  0x00000000   Number         0  os_task.o ABSOLUTE
    ..\kernel\ucos\uCOS-II\Source\os_time.c  0x00000000   Number         0  os_time.o ABSOLUTE
    ..\kernel\ucos\uCOS-II\Source\os_tmr.c   0x00000000   Number         0  os_tmr.o ABSOLUTE
    ..\monitor\monitor.c                     0x00000000   Number         0  monitor.o ABSOLUTE
    ..\net\lwip\src\api\api_lib.c            0x00000000   Number         0  api_lib.o ABSOLUTE
    ..\net\lwip\src\api\api_msg.c            0x00000000   Number         0  api_msg.o ABSOLUTE
    ..\net\lwip\src\api\err.c                0x00000000   Number         0  err.o ABSOLUTE
    ..\net\lwip\src\api\netbuf.c             0x00000000   Number         0  netbuf.o ABSOLUTE
    ..\net\lwip\src\api\netdb.c              0x00000000   Number         0  netdb.o ABSOLUTE
    ..\net\lwip\src\api\netifapi.c           0x00000000   Number         0  netifapi.o ABSOLUTE
    ..\net\lwip\src\api\sockets.c            0x00000000   Number         0  sockets.o ABSOLUTE
    ..\net\lwip\src\api\tcpip.c              0x00000000   Number         0  tcpip.o ABSOLUTE
    ..\net\lwip\src\arch\sys_arch.c          0x00000000   Number         0  sys_arch.o ABSOLUTE
    ..\net\lwip\src\core\def.c               0x00000000   Number         0  def.o ABSOLUTE
    ..\net\lwip\src\core\dhcp.c              0x00000000   Number         0  dhcp.o ABSOLUTE
    ..\net\lwip\src\core\dns.c               0x00000000   Number         0  dns.o ABSOLUTE
    ..\net\lwip\src\core\init.c              0x00000000   Number         0  init.o ABSOLUTE
    ..\net\lwip\src\core\ipv4\autoip.c       0x00000000   Number         0  autoip.o ABSOLUTE
    ..\net\lwip\src\core\ipv4\icmp.c         0x00000000   Number         0  icmp.o ABSOLUTE
    ..\net\lwip\src\core\ipv4\igmp.c         0x00000000   Number         0  igmp.o ABSOLUTE
    ..\net\lwip\src\core\ipv4\inet.c         0x00000000   Number         0  inet.o ABSOLUTE
    ..\net\lwip\src\core\ipv4\inet_chksum.c  0x00000000   Number         0  inet_chksum.o ABSOLUTE
    ..\net\lwip\src\core\ipv4\ip.c           0x00000000   Number         0  ip.o ABSOLUTE
    ..\net\lwip\src\core\ipv4\ip_addr.c      0x00000000   Number         0  ip_addr.o ABSOLUTE
    ..\net\lwip\src\core\ipv4\ip_frag.c      0x00000000   Number         0  ip_frag.o ABSOLUTE
    ..\net\lwip\src\core\mem.c               0x00000000   Number         0  mem.o ABSOLUTE
    ..\net\lwip\src\core\memp.c              0x00000000   Number         0  memp.o ABSOLUTE
    ..\net\lwip\src\core\netif.c             0x00000000   Number         0  netif.o ABSOLUTE
    ..\net\lwip\src\core\pbuf.c              0x00000000   Number         0  pbuf.o ABSOLUTE
    ..\net\lwip\src\core\raw.c               0x00000000   Number         0  raw.o ABSOLUTE
    ..\net\lwip\src\core\stats.c             0x00000000   Number         0  stats.o ABSOLUTE
    ..\net\lwip\src\core\sys.c               0x00000000   Number         0  sys.o ABSOLUTE
    ..\net\lwip\src\core\tcp.c               0x00000000   Number         0  tcp.o ABSOLUTE
    ..\net\lwip\src\core\tcp_in.c            0x00000000   Number         0  tcp_in.o ABSOLUTE
    ..\net\lwip\src\core\tcp_out.c           0x00000000   Number         0  tcp_out.o ABSOLUTE
    ..\net\lwip\src\core\timers.c            0x00000000   Number         0  timers.o ABSOLUTE
    ..\net\lwip\src\core\udp.c               0x00000000   Number         0  udp.o ABSOLUTE
    ..\net\lwip\src\netif\etharp.c           0x00000000   Number         0  etharp.o ABSOLUTE
    ..\net\lwip\src\netif\ethernetif.c       0x00000000   Number         0  ethernetif.o ABSOLUTE
    ..\net\udhcp-0.9.8\dhcpd.c               0x00000000   Number         0  dhcpd.o ABSOLUTE
    ..\net\udhcp-0.9.8\leases.c              0x00000000   Number         0  leases.o ABSOLUTE
    ..\net\udhcp-0.9.8\options.c             0x00000000   Number         0  options.o ABSOLUTE
    ..\net\udhcp-0.9.8\packet.c              0x00000000   Number         0  packet.o ABSOLUTE
    ..\net\udhcp-0.9.8\serverpacket.c        0x00000000   Number         0  serverpacket.o ABSOLUTE
    ..\net\wlan_src\mlan\mlan_11d.c          0x00000000   Number         0  mlan_11d.o ABSOLUTE
    ..\net\wlan_src\mlan\mlan_11h.c          0x00000000   Number         0  mlan_11h.o ABSOLUTE
    ..\net\wlan_src\mlan\mlan_11n.c          0x00000000   Number         0  mlan_11n.o ABSOLUTE
    ..\net\wlan_src\mlan\mlan_11n_aggr.c     0x00000000   Number         0  mlan_11n_aggr.o ABSOLUTE
    ..\net\wlan_src\mlan\mlan_11n_rxreorder.c 0x00000000   Number         0  mlan_11n_rxreorder.o ABSOLUTE
    ..\net\wlan_src\mlan\mlan_cfp.c          0x00000000   Number         0  mlan_cfp.o ABSOLUTE
    ..\net\wlan_src\mlan\mlan_cmdevt.c       0x00000000   Number         0  mlan_cmdevt.o ABSOLUTE
    ..\net\wlan_src\mlan\mlan_init.c         0x00000000   Number         0  mlan_init.o ABSOLUTE
    ..\net\wlan_src\mlan\mlan_join.c         0x00000000   Number         0  mlan_join.o ABSOLUTE
    ..\net\wlan_src\mlan\mlan_meas.c         0x00000000   Number         0  mlan_meas.o ABSOLUTE
    ..\net\wlan_src\mlan\mlan_misc.c         0x00000000   Number         0  mlan_misc.o ABSOLUTE
    ..\net\wlan_src\mlan\mlan_scan.c         0x00000000   Number         0  mlan_scan.o ABSOLUTE
    ..\net\wlan_src\mlan\mlan_sdio.c         0x00000000   Number         0  mlan_sdio.o ABSOLUTE
    ..\net\wlan_src\mlan\mlan_shim.c         0x00000000   Number         0  mlan_shim.o ABSOLUTE
    ..\net\wlan_src\mlan\mlan_sta_cmd.c      0x00000000   Number         0  mlan_sta_cmd.o ABSOLUTE
    ..\net\wlan_src\mlan\mlan_sta_cmdresp.c  0x00000000   Number         0  mlan_sta_cmdresp.o ABSOLUTE
    ..\net\wlan_src\mlan\mlan_sta_event.c    0x00000000   Number         0  mlan_sta_event.o ABSOLUTE
    ..\net\wlan_src\mlan\mlan_sta_ioctl.c    0x00000000   Number         0  mlan_sta_ioctl.o ABSOLUTE
    ..\net\wlan_src\mlan\mlan_sta_rx.c       0x00000000   Number         0  mlan_sta_rx.o ABSOLUTE
    ..\net\wlan_src\mlan\mlan_sta_tx.c       0x00000000   Number         0  mlan_sta_tx.o ABSOLUTE
    ..\net\wlan_src\mlan\mlan_txrx.c         0x00000000   Number         0  mlan_txrx.o ABSOLUTE
    ..\net\wlan_src\mlan\mlan_uap_cmdevent.c 0x00000000   Number         0  mlan_uap_cmdevent.o ABSOLUTE
    ..\net\wlan_src\mlan\mlan_uap_ioctl.c    0x00000000   Number         0  mlan_uap_ioctl.o ABSOLUTE
    ..\net\wlan_src\mlan\mlan_uap_txrx.c     0x00000000   Number         0  mlan_uap_txrx.o ABSOLUTE
    ..\net\wlan_src\mlan\mlan_wmm.c          0x00000000   Number         0  mlan_wmm.o ABSOLUTE
    ..\net\wlan_src\mlinux\moal_cfg80211.c   0x00000000   Number         0  moal_cfg80211.o ABSOLUTE
    ..\net\wlan_src\mlinux\moal_debug.c      0x00000000   Number         0  moal_debug.o ABSOLUTE
    ..\net\wlan_src\mlinux\moal_ioctl.c      0x00000000   Number         0  moal_ioctl.o ABSOLUTE
    ..\net\wlan_src\mlinux\moal_main.c       0x00000000   Number         0  moal_main.o ABSOLUTE
    ..\net\wlan_src\mlinux\moal_proc.c       0x00000000   Number         0  moal_proc.o ABSOLUTE
    ..\net\wlan_src\mlinux\moal_sdio_mmc.c   0x00000000   Number         0  moal_sdio_mmc.o ABSOLUTE
    ..\net\wlan_src\mlinux\moal_shim.c       0x00000000   Number         0  moal_shim.o ABSOLUTE
    ..\net\wlan_src\mlinux\moal_sta_cfg80211.c 0x00000000   Number         0  moal_sta_cfg80211.o ABSOLUTE
    ..\net\wlan_src\mlinux\moal_uap.c        0x00000000   Number         0  moal_uap.o ABSOLUTE
    ..\net\wlan_src\mlinux\moal_uap_cfg80211.c 0x00000000   Number         0  moal_uap_cfg80211.o ABSOLUTE
    ..\net\wlan_src\mlinux\moal_uap_priv.c   0x00000000   Number         0  moal_uap_priv.o ABSOLUTE
    ..\net\wlan_src\user\skbuff.c            0x00000000   Number         0  skbuff.o ABSOLUTE
    ..\net\wlan_src\user\usr_cfg.c           0x00000000   Number         0  usr_cfg.o ABSOLUTE
    cdrcmple.s                               0x00000000   Number         0  cdrcmple.o ABSOLUTE
    dc.s                                     0x00000000   Number         0  dc.o ABSOLUTE
    handlers.s                               0x00000000   Number         0  handlers.o ABSOLUTE
    init.s                                   0x00000000   Number         0  init.o ABSOLUTE
    RESET                                    0x08000000   Section      304  startup_stm32f10x_hd.o(RESET)
    .ARM.Collect$$$$00000000                 0x08000130   Section        0  entry.o(.ARM.Collect$$$$00000000)
    .ARM.Collect$$$$00000001                 0x08000130   Section        4  entry2.o(.ARM.Collect$$$$00000001)
    .ARM.Collect$$$$00000004                 0x08000134   Section        4  entry5.o(.ARM.Collect$$$$00000004)
    .ARM.Collect$$$$00000007                 0x08000138   Section        8  entry7.o(.ARM.Collect$$$$00000007)
    .ARM.Collect$$$$00002712                 0x08000140   Section        4  entry2.o(.ARM.Collect$$$$00002712)
    __lit__00000000                          0x08000140   Data           4  entry2.o(.ARM.Collect$$$$00002712)
    .text                                    0x08000144   Section        0  stm32f10x_dma.o(.text)
    .text                                    0x08000344   Section        0  stm32f10x_gpio.o(.text)
    .text                                    0x080005a4   Section        0  stm32f10x_rcc.o(.text)
    .text                                    0x08000978   Section        0  stm32f10x_sdio.o(.text)
    .text                                    0x08000b78   Section        0  stm32f10x_spi.o(.text)
    .text                                    0x08000ea8   Section        0  stm32f10x_usart.o(.text)
    .text                                    0x0800129c   Section       48  startup_stm32f10x_hd.o(.text)
    .text                                    0x080012cc   Section        0  misc.o(.text)
    .text                                    0x080013ac   Section        0  system_stm32f10x.o(.text)
    SetSysClockTo72                          0x080013df   Thumb Code   140  system_stm32f10x.o(.text)
    .text                                    0x0800147c   Section        0  sdcard.o(.text)
    CmdResp5Error                            0x08001485   Thumb Code   164  sdcard.o(.text)
    sdio_read_cis                            0x0800167f   Thumb Code   334  sdcard.o(.text)
    CmdResp1Error                            0x080019d9   Thumb Code   240  sdcard.o(.text)
    CmdResp6Error                            0x0800245b   Thumb Code   124  sdcard.o(.text)
    .text                                    0x08002560   Section        0  usart.o(.text)
    .text                                    0x080029bc   Section        0  driver_misc.o(.text)
    .text                                    0x08002bf4   Section        0  w25p80.o(.text)
    wait_till_ready                          0x08002ccf   Thumb Code    86  w25p80.o(.text)
    m25p_addr2cmd                            0x08002d25   Thumb Code    58  w25p80.o(.text)
    read_sr                                  0x08003217   Thumb Code    84  w25p80.o(.text)
    write_enable                             0x0800326b   Thumb Code    22  w25p80.o(.text)
    .text                                    0x080032ec   Section        0  os_core.o(.text)
    OS_SchedNew                              0x08003bc9   Thumb Code    24  os_core.o(.text)
    .text                                    0x08003bec   Section        0  os_flag.o(.text)
    OS_FlagTaskRdy                           0x08003ceb   Thumb Code    80  os_flag.o(.text)
    OS_FlagBlock                             0x08003e67   Thumb Code    88  os_flag.o(.text)
    .text                                    0x08004174   Section        0  os_q.o(.text)
    .text                                    0x0800467c   Section        0  os_sem.o(.text)
    .text                                    0x0800498c   Section        0  os_task.o(.text)
    .text                                    0x08005060   Section        0  os_time.o(.text)
    .text                                    0x080051b0   Section        0  os_tmr.o(.text)
    OSTmr_Free                               0x08005299   Thumb Code    50  os_tmr.o(.text)
    OSTmr_Unlink                             0x080052cb   Thumb Code    58  os_tmr.o(.text)
    OSTmr_Link                               0x08005481   Thumb Code    64  os_tmr.o(.text)
    OSTmr_Task                               0x08005607   Thumb Code   108  os_tmr.o(.text)
    .text                                    0x0800578c   Section        0  os_cpu_c.o(.text)
    .text                                    0x0800589c   Section      164  os_cpu_a.o(.text)
    .text                                    0x08005940   Section        0  atomic.o(.text)
    .text                                    0x080059e8   Section        0  mutex.o(.text)
    .text                                    0x08005b20   Section        0  task.o(.text)
    os_workqueue_thread                      0x08005ca9   Thumb Code   174  task.o(.text)
    .text                                    0x08005ec0   Section        0  timer.o(.text)
    .text                                    0x080061fc   Section        0  wait.o(.text)
    .text                                    0x08006430   Section        0  memory.o(.text)
    plug_holes                               0x08006a9d   Thumb Code   166  memory.o(.text)
    .text                                    0x080071a4   Section        0  api_lib.o(.text)
    netconn_recv_data                        0x08007511   Thumb Code   946  api_lib.o(.text)
    netconn_close_shutdown                   0x08007b53   Thumb Code    88  api_lib.o(.text)
    .text                                    0x08007dc4   Section        0  api_msg.o(.text)
    recv_raw                                 0x08007dc5   Thumb Code   120  api_msg.o(.text)
    recv_udp                                 0x08007e3d   Thumb Code   202  api_msg.o(.text)
    recv_tcp                                 0x08007f07   Thumb Code   196  api_msg.o(.text)
    err_tcp                                  0x08007fcb   Thumb Code   254  api_msg.o(.text)
    do_writemore                             0x080080c9   Thumb Code   958  api_msg.o(.text)
    sent_tcp                                 0x08008487   Thumb Code   124  api_msg.o(.text)
    do_close_internal                        0x08008503   Thumb Code   450  api_msg.o(.text)
    poll_tcp                                 0x080086c5   Thumb Code   124  api_msg.o(.text)
    setup_tcp                                0x08008741   Thumb Code    50  api_msg.o(.text)
    accept_function                          0x080089c5   Thumb Code   160  api_msg.o(.text)
    pcb_new                                  0x08008a65   Thumb Code   154  api_msg.o(.text)
    netconn_drain                            0x08008b1f   Thumb Code   196  api_msg.o(.text)
    do_connected                             0x08008d39   Thumb Code   184  api_msg.o(.text)
    do_dns_found                             0x080093e9   Thumb Code    82  api_msg.o(.text)
    .text                                    0x08009490   Section        0  netbuf.o(.text)
    .text                                    0x08009828   Section        0  sockets.o(.text)
    alloc_socket                             0x08009849   Thumb Code    96  sockets.o(.text)
    event_callback                           0x080098a9   Thumb Code   334  sockets.o(.text)
    lwip_selscan                             0x0800a34b   Thumb Code   288  sockets.o(.text)
    lwip_getaddrname                         0x0800a857   Thumb Code   108  sockets.o(.text)
    lwip_getsockopt_internal                 0x0800a8cb   Thumb Code   466  sockets.o(.text)
    lwip_setsockopt_internal                 0x0800ac53   Thumb Code   450  sockets.o(.text)
    tryget_socket                            0x0800afb5   Thumb Code    26  sockets.o(.text)
    .text                                    0x0800afec   Section        0  tcpip.o(.text)
    tcpip_thread                             0x0800afed   Thumb Code   140  tcpip.o(.text)
    pbuf_free_int                            0x0800b27d   Thumb Code     4  tcpip.o(.text)
    .text                                    0x0800b344   Section        0  sys_arch.o(.text)
    .text                                    0x0800b848   Section        0  dhcp.o(.text)
    dhcp_delete_msg                          0x0800b849   Thumb Code   110  dhcp.o(.text)
    dhcp_option_trailer                      0x0800b8b7   Thumb Code   136  dhcp.o(.text)
    dhcp_option_byte                         0x0800b93f   Thumb Code    50  dhcp.o(.text)
    dhcp_option                              0x0800b971   Thumb Code    68  dhcp.o(.text)
    dhcp_option_short                        0x0800b9b5   Thumb Code    70  dhcp.o(.text)
    dhcp_create_msg                          0x0800b9fb   Thumb Code   426  dhcp.o(.text)
    dhcp_discover                            0x0800bba5   Thumb Code   788  dhcp.o(.text)
    dhcp_check                               0x0800beb9   Thumb Code    38  dhcp.o(.text)
    dhcp_option_long                         0x0800bedf   Thumb Code   104  dhcp.o(.text)
    dhcp_select                              0x0800bf47   Thumb Code   210  dhcp.o(.text)
    dhcp_rebind                              0x0800c099   Thumb Code   126  dhcp.o(.text)
    dhcp_reboot                              0x0800c171   Thumb Code   148  dhcp.o(.text)
    dhcp_bind                                0x0800c2f1   Thumb Code   250  dhcp.o(.text)
    dhcp_parse_reply                         0x0800c53d   Thumb Code  1118  dhcp.o(.text)
    dhcp_recv                                0x0800c99b   Thumb Code   300  dhcp.o(.text)
    dhcp_set_state                           0x0800cd7d   Thumb Code    16  dhcp.o(.text)
    dhcp_timeout                             0x0800cd8d   Thumb Code   136  dhcp.o(.text)
    dhcp_handle_ack                          0x0800ce15   Thumb Code   120  dhcp.o(.text)
    dhcp_decline                             0x0800ce8d   Thumb Code   100  dhcp.o(.text)
    .text                                    0x0800cf04   Section        0  dns.o(.text)
    dns_recv                                 0x0800cf23   Thumb Code   352  dns.o(.text)
    dns_send                                 0x0800d0e5   Thumb Code   276  dns.o(.text)
    dns_check_entry                          0x0800d1f9   Thumb Code   198  dns.o(.text)
    dns_parse_name                           0x0800d46d   Thumb Code    34  dns.o(.text)
    dns_enqueue                              0x0800d48f   Thumb Code   168  dns.o(.text)
    .text                                    0x0800d540   Section        0  init.o(.text)
    .text                                    0x0800d56c   Section        0  netif.o(.text)
    .text                                    0x0800d81c   Section        0  pbuf.o(.text)
    pbuf_free_ooseq_callback                 0x0800d81d   Thumb Code    42  pbuf.o(.text)
    pbuf_pool_is_empty                       0x0800d847   Thumb Code    54  pbuf.o(.text)
    .text                                    0x0800e7c8   Section        0  raw.o(.text)
    .text                                    0x0800e9c4   Section        0  stats.o(.text)
    .text                                    0x0800e9c8   Section        0  tcp.o(.text)
    tcp_close_shutdown                       0x0800f0c9   Thumb Code   314  tcp.o(.text)
    tcp_new_port                             0x0800f619   Thumb Code    82  tcp.o(.text)
    tcp_accept_null                          0x0800f6fd   Thumb Code     6  tcp.o(.text)
    .text                                    0x0800fc7c   Section        0  tcp_in.o(.text)
    tcp_oos_insert_segment                   0x0800fc7d   Thumb Code   112  tcp_in.o(.text)
    tcp_receive                              0x0800fced   Thumb Code  2810  tcp_in.o(.text)
    tcp_parseopt                             0x080107e7   Thumb Code   104  tcp_in.o(.text)
    tcp_process                              0x0801084f   Thumb Code  1042  tcp_in.o(.text)
    tcp_listen_input                         0x08010c61   Thumb Code   236  tcp_in.o(.text)
    tcp_timewait_input                       0x080112af   Thumb Code    92  tcp_in.o(.text)
    .text                                    0x08011398   Section        0  tcp_out.o(.text)
    tcp_output_alloc_header                  0x08011399   Thumb Code   128  tcp_out.o(.text)
    tcp_create_segment                       0x08011419   Thumb Code   160  tcp_out.o(.text)
    tcp_pbuf_prealloc                        0x08011675   Thumb Code   112  tcp_out.o(.text)
    tcp_write_checks                         0x080116e5   Thumb Code   588  tcp_out.o(.text)
    tcp_output_segment                       0x08011f29   Thumb Code   208  tcp_out.o(.text)
    .text                                    0x08012460   Section        0  timers.o(.text)
    tcpip_tcp_timer                          0x080124d1   Thumb Code    38  timers.o(.text)
    ip_reass_timer                           0x08012519   Thumb Code    20  timers.o(.text)
    arp_timer                                0x0801252d   Thumb Code    20  timers.o(.text)
    dhcp_timer_coarse                        0x08012541   Thumb Code    20  timers.o(.text)
    dhcp_timer_fine                          0x08012555   Thumb Code    20  timers.o(.text)
    igmp_timer                               0x08012569   Thumb Code    18  timers.o(.text)
    dns_timer                                0x0801257b   Thumb Code    20  timers.o(.text)
    .text                                    0x0801273c   Section        0  udp.o(.text)
    .text                                    0x08012cb0   Section        0  icmp.o(.text)
    icmp_send_response                       0x08012eab   Thumb Code   146  icmp.o(.text)
    .text                                    0x080130bc   Section        0  igmp.o(.text)
    igmp_lookup_group                        0x080130eb   Thumb Code    62  igmp.o(.text)
    igmp_send                                0x080132fd   Thumb Code   212  igmp.o(.text)
    igmp_start_timer                         0x080136cd   Thumb Code    30  igmp.o(.text)
    igmp_delaying_member                     0x080136eb   Thumb Code    34  igmp.o(.text)
    .text                                    0x08013788   Section        0  inet_chksum.o(.text)
    lwip_standard_chksum                     0x08013789   Thumb Code    86  inet_chksum.o(.text)
    .text                                    0x080139cc   Section        0  ip.o(.text)
    .text                                    0x08013edc   Section        0  ip_addr.o(.text)
    .text                                    0x0801412c   Section        0  ip_frag.o(.text)
    ip_reass_dequeue_datagram                0x0801412d   Thumb Code    60  ip_frag.o(.text)
    ip_reass_free_complete_datagram          0x08014169   Thumb Code   276  ip_frag.o(.text)
    ip_reass_remove_oldest_datagram          0x080142a5   Thumb Code   100  ip_frag.o(.text)
    ip_reass_chain_frag_into_datagram_and_validate 0x08014309   Thumb Code   438  ip_frag.o(.text)
    ip_frag_free_pbuf_custom_ref             0x080147f5   Thumb Code    46  ip_frag.o(.text)
    ipfrag_free_pbuf_custom                  0x08014823   Thumb Code    80  ip_frag.o(.text)
    ip_reass_enqueue_new_datagram            0x08014a09   Thumb Code    98  ip_frag.o(.text)
    .text                                    0x08014ac8   Section        0  ethernetif.o(.text)
    low_level_output                         0x08014b3b   Thumb Code    20  ethernetif.o(.text)
    low_level_input                          0x08014b4f   Thumb Code   146  ethernetif.o(.text)
    low_level_init                           0x08014cc5   Thumb Code   108  ethernetif.o(.text)
    .text                                    0x08014e0c   Section        0  etharp.o(.text)
    etharp_free_entry                        0x08014e0d   Thumb Code    32  etharp.o(.text)
    etharp_find_entry                        0x08014e6f   Thumb Code   386  etharp.o(.text)
    etharp_send_ip                           0x08014ff1   Thumb Code    70  etharp.o(.text)
    etharp_update_arp_entry                  0x08015037   Thumb Code   156  etharp.o(.text)
    etharp_arp_input                         0x08015153   Thumb Code   672  etharp.o(.text)
    etharp_raw                               0x080153f3   Thumb Code   286  etharp.o(.text)
    etharp_output_to_arp_index               0x08015537   Thumb Code    96  etharp.o(.text)
    .text                                    0x08015a40   Section        0  dhcpd.o(.text)
    .text                                    0x08016144   Section        0  leases.o(.text)
    .text                                    0x080163a4   Section        0  options.o(.text)
    .text                                    0x080165ac   Section        0  packet.o(.text)
    .text                                    0x0801688c   Section        0  serverpacket.o(.text)
    send_packet                              0x0801688d   Thumb Code    34  serverpacket.o(.text)
    init_packet                              0x080168af   Thumb Code   102  serverpacket.o(.text)
    add_bootp_options                        0x08016915   Thumb Code    46  serverpacket.o(.text)
    send_packet_to_client                    0x08016cd9   Thumb Code    64  serverpacket.o(.text)
    .text                                    0x08016d28   Section        0  moal_main.o(.text)
    woal_get_priv                            0x08016d29   Thumb Code    58  moal_main.o(.text)
    woal_update_drv_tbl                      0x08016de3   Thumb Code   254  moal_main.o(.text)
    woal_init_sw                             0x08016eed   Thumb Code   342  moal_main.o(.text)
    woal_free_moal_handle                    0x08017043   Thumb Code   114  moal_main.o(.text)
    woal_init_fw_dpc                         0x080174f7   Thumb Code   202  moal_main.o(.text)
    woal_request_fw_dpc                      0x080175d1   Thumb Code   248  moal_main.o(.text)
    woal_cancel_timer                        0x080185a7   Thumb Code    20  moal_main.o(.text)
    woal_init_fw                             0x080185bb   Thumb Code    26  moal_main.o(.text)
    woal_terminate_workqueue                 0x080185d5   Thumb Code    24  moal_main.o(.text)
    .text                                    0x080185f8   Section        0  moal_cfg80211.o(.text)
    woal_cfg80211_bss_role_cfg               0x080187fd   Thumb Code    60  moal_cfg80211.o(.text)
    woal_cfg80211_custom_ie                  0x08018839   Thumb Code   410  moal_cfg80211.o(.text)
    woal_filter_beacon_ies                   0x080189d3   Thumb Code   208  moal_cfg80211.o(.text)
    .text                                    0x080192b8   Section        0  moal_ioctl.o(.text)
    woal_cac_period_block_cmd                0x0801b16b   Thumb Code   196  moal_ioctl.o(.text)
    .text                                    0x0801b248   Section        0  moal_sdio_mmc.o(.text)
    sdio_io_rw_ext_helper                    0x0801b261   Thumb Code   156  moal_sdio_mmc.o(.text)
    .text                                    0x0801b9d0   Section        0  moal_shim.o(.text)
    woal_get_priv                            0x0801b9d1   Thumb Code    58  moal_shim.o(.text)
    woal_mod_timer                           0x0801c1c9   Thumb Code    18  moal_shim.o(.text)
    woal_cancel_timer                        0x0801c1db   Thumb Code    20  moal_shim.o(.text)
    .text                                    0x0801c238   Section        0  moal_sta_cfg80211.o(.text)
    woal_cfg80211_get_encryption_mode        0x0801c239   Thumb Code    66  moal_sta_cfg80211.o(.text)
    woal_cfg80211_assoc_ies_cfg              0x0801c28f   Thumb Code   144  moal_sta_cfg80211.o(.text)
    woal_send_domain_info_cmd_fw             0x0801c31f   Thumb Code   356  moal_sta_cfg80211.o(.text)
    woal_cfg80211_set_auth                   0x0801c5e9   Thumb Code    46  moal_sta_cfg80211.o(.text)
    woal_cfg80211_assoc                      0x0801c71b   Thumb Code  1240  moal_sta_cfg80211.o(.text)
    woal_cfg80211_dump_station_info          0x0801cbf3   Thumb Code   336  moal_sta_cfg80211.o(.text)
    woal_cfg80211_scan                       0x0801cd43   Thumb Code   332  moal_sta_cfg80211.o(.text)
    woal_cfg80211_connect                    0x0801ce8f   Thumb Code   146  moal_sta_cfg80211.o(.text)
    woal_cfg80211_disconnect                 0x0801cf21   Thumb Code    62  moal_sta_cfg80211.o(.text)
    woal_cfg80211_get_station                0x0801cf5f   Thumb Code    62  moal_sta_cfg80211.o(.text)
    woal_cfg80211_dump_station               0x0801cf9d   Thumb Code    58  moal_sta_cfg80211.o(.text)
    woal_cfg80211_join_ibss                  0x0801cfd7   Thumb Code    70  moal_sta_cfg80211.o(.text)
    woal_cfg80211_leave_ibss                 0x0801d01d   Thumb Code    62  moal_sta_cfg80211.o(.text)
    woal_cfg80211_set_power_mgmt             0x0801d05b   Thumb Code    44  moal_sta_cfg80211.o(.text)
    woal_cfg80211_set_cqm_rssi_config        0x0801d0bf   Thumb Code    30  moal_sta_cfg80211.o(.text)
    woal_cfg80211_is_alg_wep                 0x0801d289   Thumb Code    16  moal_sta_cfg80211.o(.text)
    woal_nl80211_iftype_to_mode              0x0801d299   Thumb Code    20  moal_sta_cfg80211.o(.text)
    woal_cfg80211_inform_ibss_bss            0x0801d2ad   Thumb Code   152  moal_sta_cfg80211.o(.text)
    .text                                    0x0801d358   Section        0  moal_uap_cfg80211.o(.text)
    woal_cfg80211_beacon_config              0x0801d359   Thumb Code   748  moal_uap_cfg80211.o(.text)
    woal_uap_cfg80211_scan                   0x0801d645   Thumb Code    14  moal_uap_cfg80211.o(.text)
    woal_uap_cfg80211_connect                0x0801d653   Thumb Code     4  moal_uap_cfg80211.o(.text)
    woal_uap_cfg80211_disconnect             0x0801d657   Thumb Code     4  moal_uap_cfg80211.o(.text)
    .text                                    0x0801d9d8   Section        0  moal_uap.o(.text)
    woal_uap_aggr_priotbl                    0x0801d9d9   Thumb Code   176  moal_uap.o(.text)
    woal_uap_snmp_mib                        0x0801da89   Thumb Code   222  moal_uap.o(.text)
    woal_uap_hs_cfg                          0x0801db67   Thumb Code   238  moal_uap.o(.text)
    woal_uap_tx_rate_cfg                     0x0801dd33   Thumb Code   226  moal_uap.o(.text)
    woal_uap_ioctl                           0x0801de15   Thumb Code   208  moal_uap.o(.text)
    woal_enable_wapi                         0x0801df7d   Thumb Code   108  moal_uap.o(.text)
    woal_uap_set_wapi_flag_ioctl             0x0801dfe9   Thumb Code   168  moal_uap.o(.text)
    woal_uap_addba_param                     0x0801e6fd   Thumb Code   180  moal_uap.o(.text)
    woal_uap_addba_reject                    0x0801e7b1   Thumb Code   166  moal_uap.o(.text)
    woal_uap_get_fw_info                     0x0801e857   Thumb Code   122  moal_uap.o(.text)
    woal_uap_deep_sleep                      0x0801e8d1   Thumb Code   176  moal_uap.o(.text)
    woal_uap_txdatapause                     0x0801e981   Thumb Code   152  moal_uap.o(.text)
    woal_uap_sdcmd52_rw                      0x0801ea19   Thumb Code   150  moal_uap.o(.text)
    woal_uap_tx_bf_cfg                       0x0801eaaf   Thumb Code   104  moal_uap.o(.text)
    woal_uap_mgmt_frame_control              0x0801eb17   Thumb Code    98  moal_uap.o(.text)
    woal_uap_antenna_cfg                     0x0801eb79   Thumb Code   154  moal_uap.o(.text)
    woal_uap_sta_deauth_ioctl                0x0801ec13   Thumb Code   116  moal_uap.o(.text)
    woal_uap_radio_ctl                       0x0801ec87   Thumb Code   156  moal_uap.o(.text)
    woal_uap_power_mode_ioctl                0x0801ed23   Thumb Code   178  moal_uap.o(.text)
    woal_uap_bss_cfg_ioctl                   0x0801edd5   Thumb Code   156  moal_uap.o(.text)
    woal_uap_get_sta_list_ioctl              0x0801ee71   Thumb Code   104  moal_uap.o(.text)
    woal_uap_set_wapi_key_ioctl              0x0801eed9   Thumb Code   140  moal_uap.o(.text)
    .text                                    0x0801ef7c   Section        0  moal_uap_priv.o(.text)
    .text                                    0x0801f018   Section        0  mlan_11d.o(.text)
    wlan_11d_region_2_code                   0x0801f019   Thumb Code    66  mlan_11d.o(.text)
    wlan_11d_generate_domain_info            0x0801f05b   Thumb Code   248  mlan_11d.o(.text)
    wlan_11d_process_country_info            0x0801f221   Thumb Code   244  mlan_11d.o(.text)
    wlan_11d_set_domain_info                 0x0801f315   Thumb Code    88  mlan_11d.o(.text)
    wlan_11d_channel_known                   0x0801f891   Thumb Code   130  mlan_11d.o(.text)
    wlan_11d_update_chan_pwr_table           0x0801f913   Thumb Code   142  mlan_11d.o(.text)
    wlan_11d_copy_chan_power                 0x0801f9a1   Thumb Code    18  mlan_11d.o(.text)
    wlan_11d_send_domain_info                0x0801f9b3   Thumb Code    18  mlan_11d.o(.text)
    .text                                    0x0801f9c4   Section        0  mlan_11h.o(.text)
    util_unlink_list                         0x0801f9c5   Thumb Code    52  mlan_11h.o(.text)
    wlan_count_priv_cond                     0x0801f9f9   Thumb Code    68  mlan_11h.o(.text)
    wlan_get_privs_by_two_cond               0x0801fa3d   Thumb Code    98  mlan_11h.o(.text)
    wlan_11h_get_random_num                  0x0801fa9f   Thumb Code    42  mlan_11h.o(.text)
    wlan_11h_convert_ieee_to_mrvl_ie         0x0801fac9   Thumb Code    58  mlan_11h.o(.text)
    wlan_11h_set_supp_channels_ie            0x0801fb03   Thumb Code   292  mlan_11h.o(.text)
    wlan_11h_set_local_power_constraint_tlv  0x0801fc47   Thumb Code    52  mlan_11h.o(.text)
    wlan_11h_process_adhoc                   0x0801fc7b   Thumb Code   158  mlan_11h.o(.text)
    wlan_11h_is_slave_active_on_dfs_chan     0x0801fd19   Thumb Code    36  mlan_11h.o(.text)
    wlan_11h_is_master_active_on_dfs_chan    0x0801fd3d   Thumb Code    74  mlan_11h.o(.text)
    wlan_is_intf_active                      0x0801fd87   Thumb Code    16  mlan_11h.o(.text)
    wlan_11h_prepare_custom_ie_chansw        0x0801fd97   Thumb Code   180  mlan_11h.o(.text)
    wlan_11h_find_dfs_timestamp              0x0801fe4b   Thumb Code    50  mlan_11h.o(.text)
    wlan_11h_add_dfs_timestamp               0x0801fed3   Thumb Code   124  mlan_11h.o(.text)
    util_peek_list                           0x08020d61   Thumb Code    40  mlan_11h.o(.text)
    wlan_11h_set_ibss_dfs_ie                 0x08020d89   Thumb Code   148  mlan_11h.o(.text)
    wlan_11h_cmd_chan_rpt_req                0x08020e1d   Thumb Code   118  mlan_11h.o(.text)
    wlan_11h_process_infra_join              0x08020e93   Thumb Code   136  mlan_11h.o(.text)
    wlan_11h_is_dfs_master                   0x08020f1b   Thumb Code    34  mlan_11h.o(.text)
    wlan_11h_is_dfs_slave                    0x08020f3d   Thumb Code    16  mlan_11h.o(.text)
    wlan_11h_get_current_radar_detect_flags  0x08020f4d   Thumb Code    26  mlan_11h.o(.text)
    .text                                    0x08020f78   Section        0  mlan_11n.o(.text)
    wlan_send_delba_to_entry_in_txbastream_tbl 0x0802105f   Thumb Code   156  mlan_11n.o(.text)
    wlan_11n_ioctl_delba                     0x080210fb   Thumb Code   316  mlan_11n.o(.text)
    wlan_11n_get_txbastream_status           0x08021237   Thumb Code    46  mlan_11n.o(.text)
    wlan_fill_cap_info                       0x08021265   Thumb Code   202  mlan_11n.o(.text)
    util_peek_list                           0x08021d5b   Thumb Code    40  mlan_11n.o(.text)
    wlan_11n_ioctl_htusrcfg                  0x08021d83   Thumb Code   126  mlan_11n.o(.text)
    wlan_11n_ioctl_addba_param               0x08021e01   Thumb Code   150  mlan_11n.o(.text)
    wlan_send_delba_to_entry_in_reorder_tbl  0x08021e97   Thumb Code   158  mlan_11n.o(.text)
    wlan_11n_ioctl_aggr_prio_tbl             0x08021f35   Thumb Code   130  mlan_11n.o(.text)
    .text                                    0x08021fbc   Section        0  mlan_11n_aggr.o(.text)
    util_peek_list                           0x0802244b   Thumb Code    40  mlan_11n_aggr.o(.text)
    wlan_11n_form_amsdu_pkt                  0x08022473   Thumb Code   114  mlan_11n_aggr.o(.text)
    .text                                    0x080224e8   Section        0  mlan_11n_rxreorder.o(.text)
    wlan_11n_dispatch_pkt                    0x080224e9   Thumb Code    66  mlan_11n_rxreorder.o(.text)
    wlan_11n_dispatch_pkt_until_start_win    0x0802252b   Thumb Code   180  mlan_11n_rxreorder.o(.text)
    wlan_11n_delete_rxreorder_tbl_entry      0x080225df   Thumb Code   130  mlan_11n_rxreorder.o(.text)
    wlan_flush_data                          0x08022661   Thumb Code    56  mlan_11n_rxreorder.o(.text)
    wlan_11n_create_rxreorder_tbl            0x080226e5   Thumb Code   284  mlan_11n_rxreorder.o(.text)
    util_peek_list                           0x08022c8d   Thumb Code    38  mlan_11n_rxreorder.o(.text)
    wlan_11n_dispatch_amsdu_pkt              0x08022cb3   Thumb Code    38  mlan_11n_rxreorder.o(.text)
    wlan_11n_scan_and_dispatch               0x08022cd9   Thumb Code   174  mlan_11n_rxreorder.o(.text)
    .text                                    0x08022d88   Section        0  mlan_cfp.o(.text)
    wlan_count_priv_cond                     0x08022d89   Thumb Code    68  mlan_cfp.o(.text)
    wlan_get_region_cfp_table                0x08022dcd   Thumb Code   102  mlan_cfp.o(.text)
    wlan_cfp_copy_dynamic                    0x08022e33   Thumb Code   112  mlan_cfp.o(.text)
    wlan_copy_rates                          0x0802359f   Thumb Code    32  mlan_cfp.o(.text)
    .text                                    0x080235e4   Section        0  mlan_cmdevt.o(.text)
    util_unlink_list                         0x080235e5   Thumb Code    52  mlan_cmdevt.o(.text)
    wlan_get_priv_by_id                      0x08023619   Thumb Code    56  mlan_cmdevt.o(.text)
    wlan_get_priv                            0x08023651   Thumb Code    58  mlan_cmdevt.o(.text)
    wlan_get_cmd_node                        0x080236cf   Thumb Code   164  mlan_cmdevt.o(.text)
    wlan_dnld_cmd_to_fw                      0x08023825   Thumb Code   340  mlan_cmdevt.o(.text)
    wlan_dnld_sleep_confirm_cmd              0x080239f5   Thumb Code   208  mlan_cmdevt.o(.text)
    util_peek_list                           0x08024e45   Thumb Code    38  mlan_cmdevt.o(.text)
    util_enqueue_list_tail                   0x08024e6b   Thumb Code    46  mlan_cmdevt.o(.text)
    wlan_isxdigit                            0x08024e99   Thumb Code    28  mlan_cmdevt.o(.text)
    .text                                    0x08024ec0   Section        0  mlan_init.o(.text)
    util_init_list_head                      0x080257cd   Thumb Code    16  mlan_init.o(.text)
    util_free_list_head                      0x080257dd   Thumb Code    16  mlan_init.o(.text)
    util_peek_list                           0x080257ed   Thumb Code    38  mlan_init.o(.text)
    util_scalar_init                         0x08025813   Thumb Code    32  mlan_init.o(.text)
    util_scalar_free                         0x08025833   Thumb Code    12  mlan_init.o(.text)
    wlan_add_bsspriotbl                      0x0802583f   Thumb Code   102  mlan_init.o(.text)
    wlan_delete_bsspriotbl                   0x080258a5   Thumb Code   132  mlan_init.o(.text)
    .text                                    0x0802592c   Section        0  mlan_join.o(.text)
    wlan_get_common_rates                    0x0802592d   Thumb Code   188  mlan_join.o(.text)
    wlan_cmd_append_generic_ie               0x08026a9f   Thumb Code   182  mlan_join.o(.text)
    wlan_cmd_append_tsf_tlv                  0x08026b55   Thumb Code   150  mlan_join.o(.text)
    wlan_setup_rates_from_bssdesc            0x08026beb   Thumb Code   126  mlan_join.o(.text)
    wlan_cmd_append_wapi_ie                  0x08026c69   Thumb Code    98  mlan_join.o(.text)
    wlan_strlen                              0x08026ccb   Thumb Code    16  mlan_join.o(.text)
    .text                                    0x08026cdc   Section        0  mlan_meas.o(.text)
    .text                                    0x08026dc0   Section        0  mlan_misc.o(.text)
    util_unlink_list                         0x08026dc1   Thumb Code    52  mlan_misc.o(.text)
    wlan_is_custom_ie_index_unused           0x08026df5   Thumb Code    68  mlan_misc.o(.text)
    wlan_custom_ioctl_get_autoidx            0x08026e39   Thumb Code   216  mlan_misc.o(.text)
    wlan_custom_ioctl_auto_delete            0x08026f11   Thumb Code   346  mlan_misc.o(.text)
    wlan_rate_ioctl_set_rate_value           0x08028151   Thumb Code   254  mlan_misc.o(.text)
    wlan_rate_ioctl_set_rate_index           0x0802824f   Thumb Code   242  mlan_misc.o(.text)
    util_peek_list                           0x080283d3   Thumb Code    38  mlan_misc.o(.text)
    wlan_rate_ioctl_get_rate_value           0x080283f9   Thumb Code   112  mlan_misc.o(.text)
    .text                                    0x08028478   Section        0  mlan_scan.o(.text)
    util_dequeue_list                        0x08028479   Thumb Code    56  mlan_scan.o(.text)
    search_oui_in_ie                         0x080284b1   Thumb Code    50  mlan_scan.o(.text)
    is_rsn_oui_present                       0x080284e3   Thumb Code    38  mlan_scan.o(.text)
    is_wpa_oui_present                       0x08028509   Thumb Code    38  mlan_scan.o(.text)
    wlan_scan_create_channel_list            0x0802874d   Thumb Code   436  mlan_scan.o(.text)
    wlan_scan_channel_list                   0x08028901   Thumb Code   676  mlan_scan.o(.text)
    wlan_scan_setup_scan_config              0x08028ba5   Thumb Code   736  mlan_scan.o(.text)
    wlan_ret_802_11_scan_get_tlv_ptrs        0x08028e85   Thumb Code    58  mlan_scan.o(.text)
    wlan_interpret_bss_desc_with_ie          0x08028ebf   Thumb Code  1060  mlan_scan.o(.text)
    wlan_adjust_ie_in_bss_entry              0x080292e3   Thumb Code   194  mlan_scan.o(.text)
    wlan_ret_802_11_scan_store_beacon        0x080293a5   Thumb Code   844  mlan_scan.o(.text)
    wlan_restore_curr_bcn                    0x080296f1   Thumb Code   274  mlan_scan.o(.text)
    wlan_scan_process_results                0x080299ab   Thumb Code   194  mlan_scan.o(.text)
    wlan_scan_delete_table_entry             0x08029a6d   Thumb Code   450  mlan_scan.o(.text)
    wlan_parse_ext_scan_result               0x0802a10f   Thumb Code   550  mlan_scan.o(.text)
    wlan_bgscan_create_channel_list          0x0802a3fd   Thumb Code   450  mlan_scan.o(.text)
    util_peek_list                           0x0802aa41   Thumb Code    38  mlan_scan.o(.text)
    wlan_strlen                              0x0802aa67   Thumb Code    16  mlan_scan.o(.text)
    wlan_is_band_compatible                  0x0802aa77   Thumb Code    14  mlan_scan.o(.text)
    radio_type_to_band                       0x0802aa85   Thumb Code    12  mlan_scan.o(.text)
    wlan_find_best_network_in_list           0x0802aa91   Thumb Code   100  mlan_scan.o(.text)
    .text                                    0x0802aaf8   Section        0  mlan_sdio.o(.text)
    wlan_write_data_sync                     0x0802aaf9   Thumb Code    68  mlan_sdio.o(.text)
    wlan_prog_fw_w_helper                    0x0802ab3d   Thumb Code   396  mlan_sdio.o(.text)
    wlan_decode_rx_packet                    0x0802acc9   Thumb Code   424  mlan_sdio.o(.text)
    wlan_sdio_init_ioport                    0x0802b3cb   Thumb Code   160  mlan_sdio.o(.text)
    .text                                    0x0802b470   Section        0  mlan_shim.o(.text)
    wlan_get_priv                            0x0802b471   Thumb Code    58  mlan_shim.o(.text)
    util_peek_list                           0x0802bd45   Thumb Code    38  mlan_shim.o(.text)
    .text                                    0x0802bd6c   Section        0  mlan_sta_cmd.o(.text)
    wlan_cmd_802_11_snmp_mib                 0x0802bd6d   Thumb Code   124  mlan_sta_cmd.o(.text)
    wlan_cmd_802_11_key_material             0x0802bde9   Thumb Code   576  mlan_sta_cmd.o(.text)
    wlan_cmd_802_11_supplicant_pmk           0x0802c029   Thumb Code   350  mlan_sta_cmd.o(.text)
    wlan_cmd_subscribe_event                 0x0802c187   Thumb Code   446  mlan_sta_cmd.o(.text)
    wlan_cmd_tx_power_cfg                    0x0802ca43   Thumb Code    84  mlan_sta_cmd.o(.text)
    wlan_cmd_802_11_hs_cfg                   0x0802ca97   Thumb Code   118  mlan_sta_cmd.o(.text)
    wlan_set_keyparamset_wep                 0x0802cb0d   Thumb Code   154  mlan_sta_cmd.o(.text)
    wlan_cmd_802_11_supplicant_profile       0x0802cba7   Thumb Code    86  mlan_sta_cmd.o(.text)
    wlan_cmd_mgmt_ie_list                    0x0802cbfd   Thumb Code   108  mlan_sta_cmd.o(.text)
    .text                                    0x0802cc68   Section        0  mlan_sta_cmdresp.o(.text)
    wlan_ret_tx_power_cfg                    0x0802cc69   Thumb Code   332  mlan_sta_cmdresp.o(.text)
    wlan_ret_802_11_key_material             0x0802cdb5   Thumb Code   178  mlan_sta_cmdresp.o(.text)
    wlan_ret_802_11_supplicant_pmk           0x0802ce67   Thumb Code   310  mlan_sta_cmdresp.o(.text)
    wlan_ret_mgmt_ie_list                    0x0802cf9d   Thumb Code   152  mlan_sta_cmdresp.o(.text)
    wlan_ret_802_11_rssi_info                0x0802d713   Thumb Code   156  mlan_sta_cmdresp.o(.text)
    wlan_ret_802_11_snmp_mib                 0x0802d7af   Thumb Code   144  mlan_sta_cmdresp.o(.text)
    wlan_ret_ibss_coalescing_status          0x0802d83f   Thumb Code   116  mlan_sta_cmdresp.o(.text)
    .text                                    0x0802d8b4   Section        0  mlan_sta_event.o(.text)
    wlan_handle_disconnect_event             0x0802de45   Thumb Code    10  mlan_sta_event.o(.text)
    .text                                    0x0802de54   Section        0  mlan_sta_ioctl.o(.text)
    wlan_enable_aes_key                      0x0802de55   Thumb Code   110  mlan_sta_ioctl.o(.text)
    wlan_get_info_bss_info                   0x0802dec3   Thumb Code   282  mlan_sta_ioctl.o(.text)
    wlan_get_info_ioctl                      0x0802dfdd   Thumb Code   216  mlan_sta_ioctl.o(.text)
    wlan_radio_ioctl_band_cfg                0x0802e0b5   Thumb Code   310  mlan_sta_ioctl.o(.text)
    wlan_bss_ioctl_get_channel_list          0x0802e1eb   Thumb Code   262  mlan_sta_ioctl.o(.text)
    wlan_bss_ioctl_channel                   0x0802e2f1   Thumb Code   250  mlan_sta_ioctl.o(.text)
    wlan_bss_ioctl_start                     0x0802e3eb   Thumb Code   384  mlan_sta_ioctl.o(.text)
    wlan_bss_ioctl                           0x0802e663   Thumb Code   440  mlan_sta_ioctl.o(.text)
    wlan_power_ioctl_set_power               0x0802e81b   Thumb Code   252  mlan_sta_ioctl.o(.text)
    wlan_power_ioctl_set_power_ext           0x0802e917   Thumb Code   370  mlan_sta_ioctl.o(.text)
    wlan_pm_ioctl_ps_mode                    0x0802ea89   Thumb Code    90  mlan_sta_ioctl.o(.text)
    wlan_set_get_ps_cfg                      0x0802eae3   Thumb Code   172  mlan_sta_ioctl.o(.text)
    wlan_pm_ioctl                            0x0802eb8f   Thumb Code   368  mlan_sta_ioctl.o(.text)
    wlan_set_wpa_ie_helper                   0x0802ecff   Thumb Code   288  mlan_sta_ioctl.o(.text)
    wlan_set_wapi_ie                         0x0802ee1f   Thumb Code   216  mlan_sta_ioctl.o(.text)
    wlan_sec_ioctl_set_wep_key               0x0802eef7   Thumb Code   370  mlan_sta_ioctl.o(.text)
    wlan_sec_ioctl_set_wpa_key               0x0802f069   Thumb Code   290  mlan_sta_ioctl.o(.text)
    wlan_sec_ioctl_get_key                   0x0802f18b   Thumb Code   388  mlan_sta_ioctl.o(.text)
    wlan_sec_cfg_ioctl                       0x0802f30f   Thumb Code   360  mlan_sta_ioctl.o(.text)
    wlan_set_gen_ie_helper                   0x0802f477   Thumb Code   484  mlan_sta_ioctl.o(.text)
    wlan_misc_ioctl_gen_ie                   0x0802f65b   Thumb Code   352  mlan_sta_ioctl.o(.text)
    wlan_misc_cfg_ioctl                      0x0802fdd9   Thumb Code   342  mlan_sta_ioctl.o(.text)
    wlan_set_get_scan_cfg                    0x0802ff2f   Thumb Code   102  mlan_sta_ioctl.o(.text)
    wlan_scan_ioctl                          0x0802ff95   Thumb Code   366  mlan_sta_ioctl.o(.text)
    wlan_snmp_mib_ioctl                      0x080302d9   Thumb Code   128  mlan_sta_ioctl.o(.text)
    wlan_bss_ioctl_set_multicast_list        0x08030359   Thumb Code   162  mlan_sta_ioctl.o(.text)
    wlan_bss_ioctl_mode                      0x080303fb   Thumb Code   142  mlan_sta_ioctl.o(.text)
    wlan_query_passphrase                    0x08030489   Thumb Code   136  mlan_sta_ioctl.o(.text)
    wlan_rate_ioctl                          0x08030511   Thumb Code   146  mlan_sta_ioctl.o(.text)
    wlan_power_ioctl                         0x080305a3   Thumb Code    78  mlan_sta_ioctl.o(.text)
    wlan_sec_ioctl_encrypt_key               0x080305f1   Thumb Code    82  mlan_sta_ioctl.o(.text)
    wlan_sec_ioctl_passphrase                0x08030643   Thumb Code   162  mlan_sta_ioctl.o(.text)
    wlan_sec_ioctl_esupp_mode                0x080306e5   Thumb Code   102  mlan_sta_ioctl.o(.text)
    wlan_11d_cfg_ioctl                       0x0803074b   Thumb Code   160  mlan_sta_ioctl.o(.text)
    wlan_11h_channel_check_req               0x080307eb   Thumb Code   124  mlan_sta_ioctl.o(.text)
    wlan_misc_ioctl_region                   0x08030867   Thumb Code   126  mlan_sta_ioctl.o(.text)
    wlan_misc_ioctl_warm_reset               0x080308e5   Thumb Code   154  mlan_sta_ioctl.o(.text)
    wlan_power_ioctl_get_power               0x0803097f   Thumb Code    30  mlan_sta_ioctl.o(.text)
    .text                                    0x0803099c   Section        0  mlan_sta_rx.o(.text)
    .text                                    0x08030bd0   Section        0  mlan_sta_tx.o(.text)
    .text                                    0x08030e00   Section        0  mlan_txrx.o(.text)
    util_unlink_list                         0x08030e01   Thumb Code    52  mlan_txrx.o(.text)
    wlan_get_priv                            0x08030e35   Thumb Code    58  mlan_txrx.o(.text)
    util_peek_list                           0x0803116b   Thumb Code    38  mlan_txrx.o(.text)
    .text                                    0x080311ac   Section        0  mlan_uap_cmdevent.o(.text)
    wlan_uap_cmd_ap_config                   0x080311ad   Thumb Code  1938  mlan_uap_cmdevent.o(.text)
    wlan_uap_cmd_sys_configure               0x0803193f   Thumb Code   490  mlan_uap_cmdevent.o(.text)
    wlan_uap_ret_cmd_ap_config               0x08031b29   Thumb Code  1034  mlan_uap_cmdevent.o(.text)
    wlan_uap_ret_sys_config                  0x08031f33   Thumb Code   388  mlan_uap_cmdevent.o(.text)
    wlan_uap_ret_snmp_mib                    0x080320b7   Thumb Code   278  mlan_uap_cmdevent.o(.text)
    wlan_uap_cmd_key_material                0x080321cd   Thumb Code   556  mlan_uap_cmdevent.o(.text)
    wlan_process_sta_assoc_event             0x0803247f   Thumb Code   206  mlan_uap_cmdevent.o(.text)
    wlan_uap_cmd_snmp_mib                    0x08032fd1   Thumb Code   144  mlan_uap_cmdevent.o(.text)
    wlan_check_sta_capability                0x08033061   Thumb Code   190  mlan_uap_cmdevent.o(.text)
    wlan_check_uap_capability                0x0803311f   Thumb Code   188  mlan_uap_cmdevent.o(.text)
    wlan_update_wapi_info_tlv                0x080331db   Thumb Code   118  mlan_uap_cmdevent.o(.text)
    .text                                    0x08033254   Section        0  mlan_uap_ioctl.o(.text)
    wlan_uap_callback_bss_ioctl_start        0x0803329f   Thumb Code   140  mlan_uap_ioctl.o(.text)
    wlan_uap_set_wapi_ie                     0x08033363   Thumb Code   246  mlan_uap_ioctl.o(.text)
    wlan_uap_callback_domain_info            0x08033459   Thumb Code    38  mlan_uap_ioctl.o(.text)
    wlan_uap_callback_11h_channel_check_req  0x0803347f   Thumb Code   114  mlan_uap_ioctl.o(.text)
    wlan_uap_callback_snmp_mib_11h           0x080334f1   Thumb Code    90  mlan_uap_ioctl.o(.text)
    wlan_uap_bss_ioctl_reset                 0x08033b4f   Thumb Code   170  mlan_uap_ioctl.o(.text)
    wlan_uap_pm_ioctl_mode                   0x08033bf9   Thumb Code   156  mlan_uap_ioctl.o(.text)
    wlan_uap_pm_ioctl_deepsleep              0x08033c95   Thumb Code   150  mlan_uap_ioctl.o(.text)
    .text                                    0x08033d30   Section        0  mlan_uap_txrx.o(.text)
    wlan_check_unicast_packet                0x08033d31   Thumb Code   100  mlan_uap_txrx.o(.text)
    .text                                    0x0803425c   Section        0  mlan_wmm.o(.text)
    util_unlink_list                         0x0803425d   Thumb Code    52  mlan_wmm.o(.text)
    util_dequeue_list                        0x08034291   Thumb Code    52  mlan_wmm.o(.text)
    util_scalar_conditional_write            0x080342c5   Thumb Code   122  mlan_wmm.o(.text)
    wlan_is_amsdu_allowed                    0x0803433f   Thumb Code    68  mlan_wmm.o(.text)
    wlan_is_11n_enabled                      0x08034383   Thumb Code    46  mlan_wmm.o(.text)
    wlan_wmm_downgrade_tid                   0x080343b1   Thumb Code    64  mlan_wmm.o(.text)
    wlan_wmm_del_pkts_in_ralist_node         0x080343f1   Thumb Code    88  mlan_wmm.o(.text)
    wlan_send_wmmac_host_event               0x080345af   Thumb Code   212  mlan_wmm.o(.text)
    wlan_wmm_get_highest_priolist_ptr        0x08034683   Thumb Code   380  mlan_wmm.o(.text)
    wlan_send_single_packet                  0x0803482f   Thumb Code   288  mlan_wmm.o(.text)
    wlan_send_processed_packet               0x0803494f   Thumb Code   312  mlan_wmm.o(.text)
    wlan_dequeue_tx_packet                   0x08034a87   Thumb Code   532  mlan_wmm.o(.text)
    util_peek_list                           0x080358a7   Thumb Code    38  mlan_wmm.o(.text)
    util_enqueue_list_tail                   0x080358cd   Thumb Code    46  mlan_wmm.o(.text)
    util_enqueue_list_head                   0x080358fb   Thumb Code    46  mlan_wmm.o(.text)
    util_scalar_read                         0x08035929   Thumb Code    30  mlan_wmm.o(.text)
    util_scalar_write                        0x08035947   Thumb Code    38  mlan_wmm.o(.text)
    util_scalar_increment                    0x0803596d   Thumb Code    38  mlan_wmm.o(.text)
    util_scalar_decrement                    0x08035993   Thumb Code    38  mlan_wmm.o(.text)
    queuing_ra_based                         0x080359b9   Thumb Code    16  mlan_wmm.o(.text)
    wlan_strlen                              0x080359c9   Thumb Code    16  mlan_wmm.o(.text)
    wlan_is_bastream_setup                   0x080359d9   Thumb Code    28  mlan_wmm.o(.text)
    wlan_wmm_queue_priorities_tid            0x080359f5   Thumb Code   110  mlan_wmm.o(.text)
    wlan_wmm_cleanup_queues                  0x08035a63   Thumb Code   106  mlan_wmm.o(.text)
    wlan_num_pkts_in_txq                     0x08035acd   Thumb Code    30  mlan_wmm.o(.text)
    wlan_del_tx_pkts_in_ralist               0x08035aeb   Thumb Code   134  mlan_wmm.o(.text)
    .text                                    0x08035b70   Section        0  sys_misc.o(.text)
    .text                                    0x08036124   Section        0  wifi.o(.text)
    .text                                    0x08036c2c   Section        0  skbuff.o(.text)
    skb_release_data                         0x08036c79   Thumb Code   122  skbuff.o(.text)
    __copy_skb_header                        0x08036d23   Thumb Code   112  skbuff.o(.text)
    __skb_clone                              0x08036d93   Thumb Code   136  skbuff.o(.text)
    __pskb_pull                              0x08037467   Thumb Code    44  skbuff.o(.text)
    copy_skb_header                          0x080376fb   Thumb Code    50  skbuff.o(.text)
    kfree_skbmem                             0x08037969   Thumb Code    86  skbuff.o(.text)
    skb_has_frag_list                        0x080379bf   Thumb Code    14  skbuff.o(.text)
    skb_release_head_state                   0x080379cd   Thumb Code    10  skbuff.o(.text)
    skb_release_all                          0x080379d7   Thumb Code    18  skbuff.o(.text)
    skb_mac_header_was_set                   0x080379e9   Thumb Code    10  skbuff.o(.text)
    skb_clone_fraglist                       0x080379f3   Thumb Code    16  skbuff.o(.text)
    skb_over_panic                           0x08037a03   Thumb Code    98  skbuff.o(.text)
    skb_under_panic                          0x08037a65   Thumb Code   102  skbuff.o(.text)
    .text                                    0x08037adc   Section        0  usr_cfg.o(.text)
    wpa_selector_to_bitfield                 0x08037bab   Thumb Code   106  usr_cfg.o(.text)
    rsn_selector_to_bitfield                 0x08037c15   Thumb Code   106  usr_cfg.o(.text)
    wpa_parse_wpa_ie_wpa                     0x08037e35   Thumb Code   780  usr_cfg.o(.text)
    .text                                    0x0803866c   Section        0  test_wifi.o(.text)
    .text                                    0x08039140   Section        0  main.o(.text)
    .text                                    0x0803959c   Section        0  test_tcpip.o(.text)
    .text                                    0x0803adcc   Section        0  tcpapp.o(.text)
    .text                                    0x0803b8b4   Section        0  debug.o(.text)
    .text                                    0x0803caa0   Section        0  monitor.o(.text)
    .text                                    0x0803cb18   Section        0  ctype_o.o(.text)
    .text                                    0x0803cb20   Section        0  tolower.o(.text)
    .text                                    0x0803cb2c   Section        0  memmove.o(.text)
    .text                                    0x0803cb6e   Section        0  memseta.o(.text)
    .text                                    0x0803cb94   Section        0  strcat.o(.text)
    .text                                    0x0803cbb0   Section        0  strncpy.o(.text)
    .text                                    0x0803cbc8   Section        0  strlen.o(.text)
    .text                                    0x0803cbd8   Section        0  strcmp.o(.text)
    .text                                    0x0803cbf4   Section        0  memcmp.o(.text)
    .text                                    0x0803cc0e   Section        0  strcpy.o(.text)
    .text                                    0x0803cc20   Section        0  strncmp.o(.text)
    .text                                    0x0803cc3e   Section        0  uidiv.o(.text)
    .text                                    0x0803cc6a   Section        0  uldiv.o(.text)
    .text                                    0x0803ccd0   Section        0  dadd.o(.text)
    .text                                    0x0803ccd0   Section        0  iusefp.o(.text)
    .text                                    0x0803ce1a   Section        0  dmul.o(.text)
    .text                                    0x0803cefc   Section        0  ddiv.o(.text)
    .text                                    0x0803cfda   Section        0  dfixul.o(.text)
    .text                                    0x0803d00c   Section       40  cdrcmple.o(.text)
    .text                                    0x0803d034   Section       36  init.o(.text)
    .text                                    0x0803d058   Section        0  llshl.o(.text)
    .text                                    0x0803d076   Section        0  llushr.o(.text)
    .text                                    0x0803d096   Section        0  llsshr.o(.text)
    .text                                    0x0803d0ba   Section        0  depilogue.o(.text)
    .text                                    0x0803d17c   Section        0  __dczerorl2.o(.text)
    i.__0printf$8                            0x0803d1d8   Section        0  printf8.o(i.__0printf$8)
    i.__0snprintf                            0x0803d1f8   Section        0  printfa.o(i.__0snprintf)
    i.__0snprintf$8                          0x0803d220   Section        0  printf8.o(i.__0snprintf$8)
    i.__0sprintf$8                           0x0803d248   Section        0  printf8.o(i.__0sprintf$8)
    i.__free$realloc                         0x0803d270   Section        0  mallocr.o(i.__free$realloc)
    i.__malloc$realloc                       0x0803d2cc   Section        0  mallocr.o(i.__malloc$realloc)
    i.__scatterload_copy                     0x0803d31c   Section       14  handlers.o(i.__scatterload_copy)
    i.__scatterload_null                     0x0803d32a   Section        2  handlers.o(i.__scatterload_null)
    i.__scatterload_zeroinit                 0x0803d32c   Section       14  handlers.o(i.__scatterload_zeroinit)
    i._fp_digits                             0x0803d33c   Section        0  printfa.o(i._fp_digits)
    _fp_digits                               0x0803d33d   Thumb Code   318  printfa.o(i._fp_digits)
    i._printf_core                           0x0803d490   Section        0  printf8.o(i._printf_core)
    _printf_core                             0x0803d491   Thumb Code  1064  printf8.o(i._printf_core)
    i._printf_core                           0x0803d8b8   Section        0  printfa.o(i._printf_core)
    _printf_core                             0x0803d8b9   Thumb Code  1734  printfa.o(i._printf_core)
    i._printf_post_padding                   0x0803df8c   Section        0  printf8.o(i._printf_post_padding)
    _printf_post_padding                     0x0803df8d   Thumb Code    38  printf8.o(i._printf_post_padding)
    i._printf_post_padding                   0x0803dfb2   Section        0  printfa.o(i._printf_post_padding)
    _printf_post_padding                     0x0803dfb3   Thumb Code    38  printfa.o(i._printf_post_padding)
    i._printf_pre_padding                    0x0803dfd8   Section        0  printf8.o(i._printf_pre_padding)
    _printf_pre_padding                      0x0803dfd9   Thumb Code    46  printf8.o(i._printf_pre_padding)
    i._printf_pre_padding                    0x0803e006   Section        0  printfa.o(i._printf_pre_padding)
    _printf_pre_padding                      0x0803e007   Thumb Code    46  printfa.o(i._printf_pre_padding)
    i._snputc                                0x0803e034   Section        0  printf8.o(i._snputc)
    _snputc                                  0x0803e035   Thumb Code    22  printf8.o(i._snputc)
    i._snputc                                0x0803e04a   Section        0  printfa.o(i._snputc)
    _snputc                                  0x0803e04b   Thumb Code    22  printfa.o(i._snputc)
    i._sputc                                 0x0803e060   Section        0  printf8.o(i._sputc)
    _sputc                                   0x0803e061   Thumb Code    10  printf8.o(i._sputc)
    i.enter_interrupt                        0x0803e06c   Section        0  usart.o(i.enter_interrupt)
    i.exit_interrupt                         0x0803e07c   Section        0  usart.o(i.exit_interrupt)
    i.internal_alloc                         0x0803e090   Section        0  mallocr.o(i.internal_alloc)
    internal_alloc                           0x0803e091   Thumb Code    68  mallocr.o(i.internal_alloc)
    i.local_irq_save                         0x0803e0d8   Section        0  sdcard.o(i.local_irq_save)
    i.realloc                                0x0803e0dc   Section        0  mallocr.o(i.realloc)
    .constdata                               0x0803e14c   Section       20  stm32f10x_rcc.o(.constdata)
    .constdata                               0x0803e160   Section        4  system_stm32f10x.o(.constdata)
    .constdata                               0x0803e164   Section       22  sdcard.o(.constdata)
    __FUNCTION__                             0x0803e164   Data           8  sdcard.o(.constdata)
    __FUNCTION__                             0x0803e16c   Data          14  sdcard.o(.constdata)
    .constdata                               0x0803e17a   Section       27  w25p80.o(.constdata)
    __FUNCTION__                             0x0803e17a   Data          15  w25p80.o(.constdata)
    __FUNCTION__                             0x0803e189   Data          12  w25p80.o(.constdata)
    .constdata                               0x0803e195   Section      256  os_core.o(.constdata)
    .constdata                               0x0803e295   Section       31  task.o(.constdata)
    __FUNCTION__                             0x0803e295   Data          14  task.o(.constdata)
    __FUNCTION__                             0x0803e2a3   Data          17  task.o(.constdata)
    .constdata                               0x0803e2b4   Section       74  memory.o(.constdata)
    __FUNCTION__                             0x0803e2bd   Data          11  memory.o(.constdata)
    __FUNCTION__                             0x0803e2c8   Data          12  memory.o(.constdata)
    __FUNCTION__                             0x0803e2d4   Data           9  memory.o(.constdata)
    __FUNCTION__                             0x0803e2dd   Data          10  memory.o(.constdata)
    __FUNCTION__                             0x0803e2e7   Data           9  memory.o(.constdata)
    __FUNCTION__                             0x0803e2f0   Data          14  memory.o(.constdata)
    .constdata                               0x0803e2fe   Section       13  api_lib.o(.constdata)
    __FUNCTION__                             0x0803e2fe   Data          13  api_lib.o(.constdata)
    .constdata                               0x0803e30b   Section       32  api_msg.o(.constdata)
    __FUNCTION__                             0x0803e30b   Data           9  api_msg.o(.constdata)
    __FUNCTION__                             0x0803e314   Data           9  api_msg.o(.constdata)
    __FUNCTION__                             0x0803e31d   Data          14  api_msg.o(.constdata)
    .constdata                               0x0803e32b   Section       11  netbuf.o(.constdata)
    __FUNCTION__                             0x0803e32b   Data          11  netbuf.o(.constdata)
    .constdata                               0x0803e338   Section       64  sockets.o(.constdata)
    err_to_errno_table                       0x0803e338   Data          64  sockets.o(.constdata)
    .constdata                               0x0803e378   Section       90  tcpip.o(.constdata)
    __FUNCTION__                             0x0803e378   Data          12  tcpip.o(.constdata)
    __FUNCTION__                             0x0803e384   Data          26  tcpip.o(.constdata)
    __FUNCTION__                             0x0803e39e   Data          14  tcpip.o(.constdata)
    __FUNCTION__                             0x0803e3ac   Data          16  tcpip.o(.constdata)
    __FUNCTION__                             0x0803e3bc   Data          22  tcpip.o(.constdata)
    .constdata                               0x0803e3d4   Section       17  sys_arch.o(.constdata)
    __FUNCTION__                             0x0803e3d8   Data          13  sys_arch.o(.constdata)
    .constdata                               0x0803e3e8   Section        4  def.o(.constdata)
    .constdata                               0x0803e3ec   Section      149  dhcp.o(.constdata)
    __FUNCTION__                             0x0803e3ec   Data          11  dhcp.o(.constdata)
    .constdata                               0x0803e484   Section       80  dns.o(.constdata)
    __FUNCTION__                             0x0803e484   Data           9  dns.o(.constdata)
    .constdata                               0x0803e4d4   Section       32  memp.o(.constdata)
    .constdata                               0x0803e4f4   Section       11  pbuf.o(.constdata)
    __FUNCTION__                             0x0803e4f4   Data          11  pbuf.o(.constdata)
    .constdata                               0x0803e4ff   Section        8  raw.o(.constdata)
    __FUNCTION__                             0x0803e4ff   Data           8  raw.o(.constdata)
    .constdata                               0x0803e508   Section      198  tcp.o(.constdata)
    __FUNCTION__                             0x0803e55c   Data          24  tcp.o(.constdata)
    __FUNCTION__                             0x0803e574   Data          13  tcp.o(.constdata)
    __FUNCTION__                             0x0803e581   Data          10  tcp.o(.constdata)
    .constdata                               0x0803e5d0   Section      105  tcp_out.o(.constdata)
    __FUNCTION__                             0x0803e5d0   Data          19  tcp_out.o(.constdata)
    .constdata                               0x0803e639   Section       12  timers.o(.constdata)
    __FUNCTION__                             0x0803e639   Data          12  timers.o(.constdata)
    .constdata                               0x0803e645   Section        8  udp.o(.constdata)
    __FUNCTION__                             0x0803e645   Data           8  udp.o(.constdata)
    .constdata                               0x0803e64d   Section       18  igmp.o(.constdata)
    __FUNCTION__                             0x0803e64d   Data          18  igmp.o(.constdata)
    .constdata                               0x0803e660   Section        4  ip_addr.o(.constdata)
    .constdata                               0x0803e664   Section        4  ip_addr.o(.constdata)
    .constdata                               0x0803e668   Section       60  ip_frag.o(.constdata)
    __FUNCTION__                             0x0803e668   Data          30  ip_frag.o(.constdata)
    __FUNCTION__                             0x0803e686   Data          30  ip_frag.o(.constdata)
    .constdata                               0x0803e6a4   Section       30  ethernetif.o(.constdata)
    __FUNCTION__                             0x0803e6a4   Data          14  ethernetif.o(.constdata)
    __FUNCTION__                             0x0803e6b2   Data          16  ethernetif.o(.constdata)
    .constdata                               0x0803e6c4   Section       80  etharp.o(.constdata)
    .constdata                               0x0803e714   Section       83  dhcpd.o(.constdata)
    __FUNCTION__                             0x0803e724   Data          12  dhcpd.o(.constdata)
    __FUNCTION__                             0x0803e730   Data          19  dhcpd.o(.constdata)
    __FUNCTION__                             0x0803e743   Data          20  dhcpd.o(.constdata)
    __FUNCTION__                             0x0803e757   Data          16  dhcpd.o(.constdata)
    .constdata                               0x0803e767   Section       25  leases.o(.constdata)
    __FUNCTION__                             0x0803e777   Data           9  leases.o(.constdata)
    .constdata                               0x0803e780   Section      378  options.o(.constdata)
    __FUNCTION__                             0x0803e8ec   Data          14  options.o(.constdata)
    .constdata                               0x0803e8fa   Section       11  packet.o(.constdata)
    __FUNCTION__                             0x0803e8fa   Data          11  packet.o(.constdata)
    .constdata                               0x0803e905   Section       38  serverpacket.o(.constdata)
    __FUNCTION__                             0x0803e905   Data           8  serverpacket.o(.constdata)
    __FUNCTION__                             0x0803e90d   Data           8  serverpacket.o(.constdata)
    __FUNCTION__                             0x0803e915   Data          10  serverpacket.o(.constdata)
    __FUNCTION__                             0x0803e91f   Data          12  serverpacket.o(.constdata)
    .constdata                               0x0803e92c   Section    249979  moal_main.o(.constdata)
    __FUNCTION__                             0x0807b868   Data          20  moal_main.o(.constdata)
    __FUNCTION__                             0x0807b87c   Data          13  moal_main.o(.constdata)
    __FUNCTION__                             0x0807b889   Data          22  moal_main.o(.constdata)
    __FUNCTION__                             0x0807b89f   Data          17  moal_main.o(.constdata)
    __FUNCTION__                             0x0807b8b0   Data          19  moal_main.o(.constdata)
    __FUNCTION__                             0x0807b8c3   Data          11  moal_main.o(.constdata)
    __FUNCTION__                             0x0807b8ce   Data          18  moal_main.o(.constdata)
    __FUNCTION__                             0x0807b8e0   Data          21  moal_main.o(.constdata)
    __FUNCTION__                             0x0807b8f5   Data          23  moal_main.o(.constdata)
    __FUNCTION__                             0x0807b90c   Data          26  moal_main.o(.constdata)
    __FUNCTION__                             0x0807b926   Data          21  moal_main.o(.constdata)
    __FUNCTION__                             0x0807b93b   Data          26  moal_main.o(.constdata)
    __FUNCTION__                             0x0807b955   Data          31  moal_main.o(.constdata)
    __FUNCTION__                             0x0807b988   Data          14  moal_main.o(.constdata)
    __FUNCTION__                             0x0807b996   Data          17  moal_main.o(.constdata)
    .constdata                               0x0807b9a8   Section        4  moal_main.o(.constdata)
    .constdata                               0x0807b9ac   Section      168  moal_cfg80211.o(.constdata)
    .constdata                               0x0807ba54   Section      504  moal_cfg80211.o(.constdata)
    .constdata                               0x0807bc4c   Section     1116  moal_cfg80211.o(.constdata)
    .constdata                               0x0807c0a8   Section       40  moal_cfg80211.o(.constdata)
    .constdata                               0x0807c0d0   Section       74  moal_cfg80211.o(.constdata)
    __FUNCTION__                             0x0807c0d0   Data          22  moal_cfg80211.o(.constdata)
    __FUNCTION__                             0x0807c0e6   Data          24  moal_cfg80211.o(.constdata)
    __FUNCTION__                             0x0807c0fe   Data          28  moal_cfg80211.o(.constdata)
    .constdata                               0x0807c11a   Section      130  moal_ioctl.o(.constdata)
    region_code_mapping                      0x0807c11a   Data          36  moal_ioctl.o(.constdata)
    __FUNCTION__                             0x0807c13e   Data          19  moal_ioctl.o(.constdata)
    __FUNCTION__                             0x0807c151   Data          19  moal_ioctl.o(.constdata)
    __FUNCTION__                             0x0807c164   Data          17  moal_ioctl.o(.constdata)
    __FUNCTION__                             0x0807c175   Data          18  moal_ioctl.o(.constdata)
    __FUNCTION__                             0x0807c187   Data          21  moal_ioctl.o(.constdata)
    .constdata                               0x0807c19c   Section       40  moal_sdio_mmc.o(.constdata)
    __FUNCTION__                             0x0807c19c   Data          16  moal_sdio_mmc.o(.constdata)
    __FUNCTION__                             0x0807c1ac   Data          24  moal_sdio_mmc.o(.constdata)
    .constdata                               0x0807c1c4   Section      132  moal_shim.o(.constdata)
    .constdata                               0x0807c248   Section       58  moal_shim.o(.constdata)
    __FUNCTION__                             0x0807c248   Data          12  moal_shim.o(.constdata)
    __FUNCTION__                             0x0807c254   Data          16  moal_shim.o(.constdata)
    __FUNCTION__                             0x0807c264   Data          15  moal_shim.o(.constdata)
    __FUNCTION__                             0x0807c273   Data          15  moal_shim.o(.constdata)
    .constdata                               0x0807c284   Section      143  moal_sta_cfg80211.o(.constdata)
    __FUNCTION__                             0x0807c2e4   Data          20  moal_sta_cfg80211.o(.constdata)
    __FUNCTION__                             0x0807c2f8   Data          27  moal_sta_cfg80211.o(.constdata)
    .constdata                               0x0807c314   Section      163  moal_uap_cfg80211.o(.constdata)
    ieee80211_uap_mgmt_stypes                0x0807c314   Data          40  moal_uap_cfg80211.o(.constdata)
    __FUNCTION__                             0x0807c39c   Data          27  moal_uap_cfg80211.o(.constdata)
    .constdata                               0x0807c3b7   Section       20  moal_uap.o(.constdata)
    __FUNCTION__                             0x0807c3b7   Data          20  moal_uap.o(.constdata)
    .constdata                               0x0807c3cc   Section      588  mlan_11d.o(.constdata)
    region_code_mapping                      0x0807c3cc   Data          48  mlan_11d.o(.constdata)
    channel_freq_power_UN_BG                 0x0807c3fc   Data         168  mlan_11d.o(.constdata)
    channel_freq_power_UN_AJ                 0x0807c4a4   Data         372  mlan_11d.o(.constdata)
    .constdata                               0x0807c618   Section       16  mlan_11h.o(.constdata)
    wlan_11h_2_4G_region_FCC                 0x0807c618   Data           2  mlan_11h.o(.constdata)
    wlan_11h_2_4G_region_EU                  0x0807c61a   Data           2  mlan_11h.o(.constdata)
    wlan_11h_2_4G_region_JPN40               0x0807c61c   Data           2  mlan_11h.o(.constdata)
    wlan_11h_JPN_bottom_band                 0x0807c61e   Data           2  mlan_11h.o(.constdata)
    wlan_11h_unii_lower_band                 0x0807c620   Data           2  mlan_11h.o(.constdata)
    wlan_11h_unii_middle_band                0x0807c622   Data           2  mlan_11h.o(.constdata)
    wlan_11h_unii_mid_upper_band             0x0807c624   Data           2  mlan_11h.o(.constdata)
    wlan_11h_unii_upper_band                 0x0807c626   Data           2  mlan_11h.o(.constdata)
    .constdata                               0x0807c628   Section        8  mlan_11n_aggr.o(.constdata)
    .constdata                               0x0807c630   Section      757  mlan_cfp.o(.constdata)
    country_code_mapping                     0x0807c63d   Data          70  mlan_cfp.o(.constdata)
    cfp_table_BG                             0x0807c684   Data         120  mlan_cfp.o(.constdata)
    cfp_table_A                              0x0807c6fc   Data         276  mlan_cfp.o(.constdata)
    __FUNCTION__                             0x0807c910   Data          21  mlan_cfp.o(.constdata)
    .constdata                               0x0807c928   Section      132  mlan_cfp.o(.constdata)
    channel_freq_power_US_BG                 0x0807c928   Data         132  mlan_cfp.o(.constdata)
    .constdata                               0x0807c9ac   Section      156  mlan_cfp.o(.constdata)
    channel_freq_power_EU_BG                 0x0807c9ac   Data         156  mlan_cfp.o(.constdata)
    .constdata                               0x0807ca48   Section      156  mlan_cfp.o(.constdata)
    channel_freq_power_FR_BG                 0x0807ca48   Data         156  mlan_cfp.o(.constdata)
    .constdata                               0x0807cae4   Section      156  mlan_cfp.o(.constdata)
    channel_freq_power_JPN41_BG              0x0807cae4   Data         156  mlan_cfp.o(.constdata)
    .constdata                               0x0807cb80   Section       12  mlan_cfp.o(.constdata)
    channel_freq_power_JPN40_BG              0x0807cb80   Data          12  mlan_cfp.o(.constdata)
    .constdata                               0x0807cb8c   Section      156  mlan_cfp.o(.constdata)
    channel_freq_power_JPNFE_BG              0x0807cb8c   Data         156  mlan_cfp.o(.constdata)
    .constdata                               0x0807cc28   Section      156  mlan_cfp.o(.constdata)
    channel_freq_power_BR_BG                 0x0807cc28   Data         156  mlan_cfp.o(.constdata)
    .constdata                               0x0807ccc4   Section      168  mlan_cfp.o(.constdata)
    channel_freq_power_SPECIAL_BG            0x0807ccc4   Data         168  mlan_cfp.o(.constdata)
    .constdata                               0x0807cd6c   Section      288  mlan_cfp.o(.constdata)
    channel_freq_power_A                     0x0807cd6c   Data         288  mlan_cfp.o(.constdata)
    .constdata                               0x0807ce8c   Section      252  mlan_cfp.o(.constdata)
    channel_freq_power_CAN_A                 0x0807ce8c   Data         252  mlan_cfp.o(.constdata)
    .constdata                               0x0807cf88   Section      228  mlan_cfp.o(.constdata)
    channel_freq_power_EU_A                  0x0807cf88   Data         228  mlan_cfp.o(.constdata)
    .constdata                               0x0807d06c   Section      228  mlan_cfp.o(.constdata)
    channel_freq_power_JPN_A                 0x0807d06c   Data         228  mlan_cfp.o(.constdata)
    .constdata                               0x0807d150   Section       60  mlan_cfp.o(.constdata)
    channel_freq_power_CN_A                  0x0807d150   Data          60  mlan_cfp.o(.constdata)
    .constdata                               0x0807d18c   Section       12  mlan_cfp.o(.constdata)
    channel_freq_power_NULL_A                0x0807d18c   Data          12  mlan_cfp.o(.constdata)
    .constdata                               0x0807d198   Section      228  mlan_cfp.o(.constdata)
    channel_freq_power_GRM_A                 0x0807d198   Data         228  mlan_cfp.o(.constdata)
    .constdata                               0x0807d27c   Section       48  mlan_cfp.o(.constdata)
    channel_freq_power_SPN0_A                0x0807d27c   Data          48  mlan_cfp.o(.constdata)
    .constdata                               0x0807d2ac   Section       48  mlan_cfp.o(.constdata)
    channel_freq_power_SPN1_A                0x0807d2ac   Data          48  mlan_cfp.o(.constdata)
    .constdata                               0x0807d2dc   Section       96  mlan_cfp.o(.constdata)
    channel_freq_power_SPN2_A                0x0807d2dc   Data          96  mlan_cfp.o(.constdata)
    .constdata                               0x0807d33c   Section      132  mlan_cfp.o(.constdata)
    channel_freq_power_SPN3_A                0x0807d33c   Data         132  mlan_cfp.o(.constdata)
    .constdata                               0x0807d3c0   Section       60  mlan_cfp.o(.constdata)
    channel_freq_power_AT_A                  0x0807d3c0   Data          60  mlan_cfp.o(.constdata)
    .constdata                               0x0807d3fc   Section      132  mlan_cfp.o(.constdata)
    channel_freq_power_BR1_A                 0x0807d3fc   Data         132  mlan_cfp.o(.constdata)
    .constdata                               0x0807d480   Section       60  mlan_cfp.o(.constdata)
    channel_freq_power_BR2_A                 0x0807d480   Data          60  mlan_cfp.o(.constdata)
    .constdata                               0x0807d4bc   Section       48  mlan_cfp.o(.constdata)
    channel_freq_power_RU_A                  0x0807d4bc   Data          48  mlan_cfp.o(.constdata)
    .constdata                               0x0807d4ec   Section       48  mlan_cfp.o(.constdata)
    channel_freq_power_low_band              0x0807d4ec   Data          48  mlan_cfp.o(.constdata)
    .constdata                               0x0807d51c   Section       48  mlan_cfp.o(.constdata)
    channel_freq_power_lower_middle_band     0x0807d51c   Data          48  mlan_cfp.o(.constdata)
    .constdata                               0x0807d54c   Section      132  mlan_cfp.o(.constdata)
    channel_freq_power_upper_middle_band     0x0807d54c   Data         132  mlan_cfp.o(.constdata)
    .constdata                               0x0807d5d0   Section       60  mlan_cfp.o(.constdata)
    channel_freq_power_high_band             0x0807d5d0   Data          60  mlan_cfp.o(.constdata)
    .constdata                               0x0807d60c   Section      108  mlan_cfp.o(.constdata)
    channel_freq_power_low_high_band         0x0807d60c   Data         108  mlan_cfp.o(.constdata)
    .constdata                               0x0807d678   Section       18  mlan_cfp.o(.constdata)
    .constdata                               0x0807d68a   Section        2  mlan_cfp.o(.constdata)
    .constdata                               0x0807d68c   Section       10  mlan_cfp.o(.constdata)
    .constdata                               0x0807d696   Section       44  mlan_cmdevt.o(.constdata)
    __FUNCTION__                             0x0807d696   Data          18  mlan_cmdevt.o(.constdata)
    __FUNCTION__                             0x0807d6a8   Data          26  mlan_cmdevt.o(.constdata)
    .constdata                               0x0807d6c2   Section       33  mlan_init.o(.constdata)
    __FUNCTION__                             0x0807d6c2   Data          15  mlan_init.o(.constdata)
    __FUNCTION__                             0x0807d6d1   Data          18  mlan_init.o(.constdata)
    .constdata                               0x0807d6e3   Section       81  mlan_join.o(.constdata)
    __FUNCTION__                             0x0807d6e3   Data          26  mlan_join.o(.constdata)
    __FUNCTION__                             0x0807d6fd   Data          26  mlan_join.o(.constdata)
    __FUNCTION__                             0x0807d717   Data          29  mlan_join.o(.constdata)
    .constdata                               0x0807d734   Section       22  mlan_sdio.o(.constdata)
    __FUNCTION__                             0x0807d734   Data          22  mlan_sdio.o(.constdata)
    .constdata                               0x0807d74c   Section       32  mlan_shim.o(.constdata)
    .constdata                               0x0807d76c   Section       32  mlan_shim.o(.constdata)
    .constdata                               0x0807d78c   Section       63  mlan_sta_ioctl.o(.constdata)
    __FUNCTION__                             0x0807d78c   Data          23  mlan_sta_ioctl.o(.constdata)
    __FUNCTION__                             0x0807d7a3   Data          17  mlan_sta_ioctl.o(.constdata)
    __FUNCTION__                             0x0807d7b4   Data          23  mlan_sta_ioctl.o(.constdata)
    .constdata                               0x0807d7cb   Section       21  mlan_uap_ioctl.o(.constdata)
    __FUNCTION__                             0x0807d7cb   Data          21  mlan_uap_ioctl.o(.constdata)
    .constdata                               0x0807d7e0   Section       29  mlan_wmm.o(.constdata)
    wmm_aci_to_qidx_map                      0x0807d7e0   Data           4  mlan_wmm.o(.constdata)
    tos_to_ac                                0x0807d7ec   Data           8  mlan_wmm.o(.constdata)
    wmm_info_ie                              0x0807d7f4   Data           9  mlan_wmm.o(.constdata)
    .constdata                               0x0807d7fd   Section       18  sys_misc.o(.constdata)
    __FUNCTION__                             0x0807d7fd   Data          18  sys_misc.o(.constdata)
    .constdata                               0x0807d80f   Section      166  wifi.o(.constdata)
    __FUNCTION__                             0x0807d80f   Data          14  wifi.o(.constdata)
    __FUNCTION__                             0x0807d81d   Data          17  wifi.o(.constdata)
    __FUNCTION__                             0x0807d82e   Data          12  wifi.o(.constdata)
    __FUNCTION__                             0x0807d83a   Data          16  wifi.o(.constdata)
    __FUNCTION__                             0x0807d84a   Data          17  wifi.o(.constdata)
    __FUNCTION__                             0x0807d85b   Data          18  wifi.o(.constdata)
    __FUNCTION__                             0x0807d86d   Data          13  wifi.o(.constdata)
    __FUNCTION__                             0x0807d87a   Data          13  wifi.o(.constdata)
    __FUNCTION__                             0x0807d887   Data          16  wifi.o(.constdata)
    __FUNCTION__                             0x0807d897   Data          15  wifi.o(.constdata)
    __FUNCTION__                             0x0807d8a6   Data          15  wifi.o(.constdata)
    .constdata                               0x0807d8b8   Section      286  skbuff.o(.constdata)
    __FUNCTION__                             0x0807d8b8   Data           9  skbuff.o(.constdata)
    __FUNCTION__                             0x0807d8c1   Data          16  skbuff.o(.constdata)
    __FUNCTION__                             0x0807d8d1   Data          12  skbuff.o(.constdata)
    __FUNCTION__                             0x0807d8dd   Data          19  skbuff.o(.constdata)
    __FUNCTION__                             0x0807d8f0   Data          10  skbuff.o(.constdata)
    __FUNCTION__                             0x0807d8fa   Data           9  skbuff.o(.constdata)
    __FUNCTION__                             0x0807d903   Data          10  skbuff.o(.constdata)
    __FUNCTION__                             0x0807d90d   Data          17  skbuff.o(.constdata)
    __FUNCTION__                             0x0807d91e   Data          16  skbuff.o(.constdata)
    .constdata                               0x0807d9d6   Section      184  usr_cfg.o(.constdata)
    __FUNCTION__                             0x0807d9d6   Data          20  usr_cfg.o(.constdata)
    __FUNCTION__                             0x0807d9ea   Data          11  usr_cfg.o(.constdata)
    __FUNCTION__                             0x0807d9f5   Data          17  usr_cfg.o(.constdata)
    __FUNCTION__                             0x0807da06   Data          25  usr_cfg.o(.constdata)
    __FUNCTION__                             0x0807da1f   Data          29  usr_cfg.o(.constdata)
    __FUNCTION__                             0x0807da3c   Data          21  usr_cfg.o(.constdata)
    __FUNCTION__                             0x0807da51   Data          35  usr_cfg.o(.constdata)
    __FUNCTION__                             0x0807da74   Data          26  usr_cfg.o(.constdata)
    .constdata                               0x0807da8e   Section      142  test_wifi.o(.constdata)
    __FUNCTION__                             0x0807da8e   Data          10  test_wifi.o(.constdata)
    __FUNCTION__                             0x0807da98   Data          18  test_wifi.o(.constdata)
    __FUNCTION__                             0x0807daaa   Data          15  test_wifi.o(.constdata)
    __FUNCTION__                             0x0807dab9   Data          21  test_wifi.o(.constdata)
    __FUNCTION__                             0x0807dace   Data          21  test_wifi.o(.constdata)
    __FUNCTION__                             0x0807dae3   Data          22  test_wifi.o(.constdata)
    __FUNCTION__                             0x0807daf9   Data          13  test_wifi.o(.constdata)
    __FUNCTION__                             0x0807db06   Data          22  test_wifi.o(.constdata)
    .constdata                               0x0807db1c   Section       97  main.o(.constdata)
    .constdata                               0x0807db7d   Section      228  test_tcpip.o(.constdata)
    __FUNCTION__                             0x0807db7d   Data          14  test_tcpip.o(.constdata)
    __FUNCTION__                             0x0807db8b   Data          14  test_tcpip.o(.constdata)
    __FUNCTION__                             0x0807db99   Data          20  test_tcpip.o(.constdata)
    __FUNCTION__                             0x0807dbad   Data          25  test_tcpip.o(.constdata)
    __FUNCTION__                             0x0807dbc6   Data          16  test_tcpip.o(.constdata)
    __FUNCTION__                             0x0807dbd6   Data          13  test_tcpip.o(.constdata)
    __FUNCTION__                             0x0807dbe3   Data          16  test_tcpip.o(.constdata)
    __FUNCTION__                             0x0807dbf3   Data          16  test_tcpip.o(.constdata)
    __FUNCTION__                             0x0807dc03   Data          21  test_tcpip.o(.constdata)
    __FUNCTION__                             0x0807dc18   Data          26  test_tcpip.o(.constdata)
    __FUNCTION__                             0x0807dc32   Data          22  test_tcpip.o(.constdata)
    __FUNCTION__                             0x0807dc48   Data           9  test_tcpip.o(.constdata)
    __FUNCTION__                             0x0807dc51   Data          16  test_tcpip.o(.constdata)
    .constdata                               0x0807dc61   Section      106  tcpapp.o(.constdata)
    __FUNCTION__                             0x0807dc61   Data          15  tcpapp.o(.constdata)
    __FUNCTION__                             0x0807dc70   Data          12  tcpapp.o(.constdata)
    __FUNCTION__                             0x0807dc7c   Data           9  tcpapp.o(.constdata)
    __FUNCTION__                             0x0807dc85   Data           9  tcpapp.o(.constdata)
    __FUNCTION__                             0x0807dc8e   Data          19  tcpapp.o(.constdata)
    __FUNCTION__                             0x0807dca1   Data          18  tcpapp.o(.constdata)
    __FUNCTION__                             0x0807dcb3   Data          14  tcpapp.o(.constdata)
    __FUNCTION__                             0x0807dcc1   Data          10  tcpapp.o(.constdata)
    .constdata                               0x0807dccc   Section      812  debug.o(.constdata)
    __FUNCTION__                             0x0807dccc   Data          14  debug.o(.constdata)
    __FUNCTION__                             0x0807dcda   Data          19  debug.o(.constdata)
    __FUNCTION__                             0x0807dced   Data          20  debug.o(.constdata)
    __FUNCTION__                             0x0807dd01   Data          22  debug.o(.constdata)
    __FUNCTION__                             0x0807dd17   Data          19  debug.o(.constdata)
    .constdata                               0x0807dff8   Section      129  ctype_o.o(.constdata)
    .constdata                               0x0807e07c   Section        4  ctype_o.o(.constdata)
    table                                    0x0807e07c   Data           4  ctype_o.o(.constdata)
    .conststring                             0x0807e080   Section      104  tcp.o(.conststring)
    .conststring                             0x0807e0e8   Section       29  test_wifi.o(.conststring)
    .conststring                             0x0807e105   Section       14  debug.o(.conststring)
    .conststrlit                             0x0807e113   Section       35  memory.o(.conststrlit)
    .conststrlit                             0x0807e136   Section       34  ethernetif.o(.conststrlit)
    .conststrlit                             0x0807e158   Section       15  mlan_join.o(.conststrlit)
    .conststrlit                             0x0807e167   Section       16  mlan_scan.o(.conststrlit)
    .conststrlit                             0x0807e177   Section       29  mlan_sdio.o(.conststrlit)
    .conststrlit                             0x0807e194   Section       30  test_tcpip.o(.conststrlit)
    .conststrlit                             0x0807e1b2   Section       21  debug.o(.conststrlit)
    .data                                    0x20000000   Section       12  sdcard.o(.data)
    sd_cmd_res                               0x20000000   Data           1  sdcard.o(.data)
    sd_waitq                                 0x20000004   Data           4  sdcard.o(.data)
    sd_mutex                                 0x20000008   Data           4  sdcard.o(.data)
    .data                                    0x2000000c   Section       57  os_core.o(.data)
    .data                                    0x20000048   Section        4  os_core.o(.data)
    .data                                    0x2000004c   Section        4  os_core.o(.data)
    .data                                    0x20000050   Section        2  os_core.o(.data)
    .data                                    0x20000052   Section        2  os_core.o(.data)
    .data                                    0x20000054   Section        4  os_core.o(.data)
    .data                                    0x20000058   Section        4  os_core.o(.data)
    .data                                    0x2000005c   Section        4  os_core.o(.data)
    .data                                    0x20000060   Section        4  os_core.o(.data)
    .data                                    0x20000064   Section       16  os_cpu_c.o(.data)
    OSTmrCtr                                 0x20000064   Data           2  os_cpu_c.o(.data)
    cnt                                      0x20000070   Data           4  os_cpu_c.o(.data)
    .data                                    0x20000074   Section        4  task.o(.data)
    timer_tasklet                            0x20000074   Data           4  task.o(.data)
    .data                                    0x20000078   Section       40  memory.o(.data)
    mem_free_count                           0x20000078   Data           1  memory.o(.data)
    malloc_cnt                               0x2000007c   Data           4  memory.o(.data)
    once                                     0x20000080   Data           4  memory.o(.data)
    ram                                      0x20000084   Data           4  memory.o(.data)
    ram_size                                 0x20000088   Data           4  memory.o(.data)
    ram_totol                                0x2000008c   Data           4  memory.o(.data)
    ram_used                                 0x20000090   Data           4  memory.o(.data)
    ram_end                                  0x20000094   Data           4  memory.o(.data)
    lfree                                    0x20000098   Data           4  memory.o(.data)
    mem_mutex                                0x2000009c   Data           4  memory.o(.data)
    .data                                    0x200000a0   Section       12  sockets.o(.data)
    select_cb_list                           0x200000a0   Data           4  sockets.o(.data)
    select_cb_ctr                            0x200000a4   Data           4  sockets.o(.data)
    .data                                    0x200000ac   Section       16  tcpip.o(.data)
    tcpip_init_done                          0x200000ac   Data           4  tcpip.o(.data)
    tcpip_init_done_arg                      0x200000b0   Data           4  tcpip.o(.data)
    mbox_sem                                 0x200000b8   Data           4  tcpip.o(.data)
    .data                                    0x200000bc   Section        4  sys_arch.o(.data)
    .data                                    0x200000c0   Section        4  dhcp.o(.data)
    xid                                      0x200000c0   Data           4  dhcp.o(.data)
    .data                                    0x200000c4   Section       16  dns.o(.data)
    dns_seqno                                0x200000c4   Data           1  dns.o(.data)
    dns_pcb                                  0x200000c8   Data           4  dns.o(.data)
    dns_servers                              0x200000cc   Data           4  dns.o(.data)
    dns_payload                              0x200000d0   Data           4  dns.o(.data)
    .data                                    0x200000d4   Section       12  netif.o(.data)
    netif_num                                0x200000d4   Data           1  netif.o(.data)
    .data                                    0x200000e0   Section        1  pbuf.o(.data)
    .data                                    0x200000e4   Section        4  raw.o(.data)
    raw_pcbs                                 0x200000e4   Data           4  raw.o(.data)
    .data                                    0x200000e8   Section       36  tcp.o(.data)
    tcp_timer                                0x200000e9   Data           1  tcp.o(.data)
    tcp_timer_ctr                            0x200000ea   Data           1  tcp.o(.data)
    tcp_port                                 0x200000ec   Data           2  tcp.o(.data)
    iss                                      0x200000f0   Data           4  tcp.o(.data)
    .data                                    0x2000010c   Section       28  tcp_in.o(.data)
    flags                                    0x2000010c   Data           1  tcp_in.o(.data)
    recv_flags                               0x2000010d   Data           1  tcp_in.o(.data)
    tcplen                                   0x2000010e   Data           2  tcp_in.o(.data)
    tcphdr                                   0x20000110   Data           4  tcp_in.o(.data)
    iphdr                                    0x20000114   Data           4  tcp_in.o(.data)
    seqno                                    0x20000118   Data           4  tcp_in.o(.data)
    ackno                                    0x2000011c   Data           4  tcp_in.o(.data)
    recv_data                                0x20000120   Data           4  tcp_in.o(.data)
    .data                                    0x20000128   Section        8  timers.o(.data)
    next_timeout                             0x20000128   Data           4  timers.o(.data)
    tcpip_tcp_timer_active                   0x2000012c   Data           4  timers.o(.data)
    .data                                    0x20000130   Section        8  udp.o(.data)
    udp_port                                 0x20000130   Data           2  udp.o(.data)
    .data                                    0x20000138   Section       12  igmp.o(.data)
    igmp_group_list                          0x20000138   Data           4  igmp.o(.data)
    allsystems                               0x2000013c   Data           4  igmp.o(.data)
    allrouters                               0x20000140   Data           4  igmp.o(.data)
    .data                                    0x20000144   Section       20  ip.o(.data)
    ip_id                                    0x20000144   Data           2  ip.o(.data)
    .data                                    0x20000158   Section        8  ip_frag.o(.data)
    ip_reass_pbufcount                       0x20000158   Data           2  ip_frag.o(.data)
    reassdatagrams                           0x2000015c   Data           4  ip_frag.o(.data)
    .data                                    0x20000160   Section        4  ethernetif.o(.data)
    .data                                    0x20000164   Section        1  etharp.o(.data)
    etharp_cached_entry                      0x20000164   Data           1  etharp.o(.data)
    .data                                    0x20000168   Section        8  dhcpd.o(.data)
    .data                                    0x20000170   Section       50  moal_main.o(.data)
    .data                                    0x200001a4   Section       44  moal_cfg80211.o(.data)
    .data                                    0x200001d0   Section       44  moal_cfg80211.o(.data)
    .data                                    0x200001fc   Section        4  moal_cfg80211.o(.data)
    last_mgmt_subtype_mask                   0x200001fc   Data           4  moal_cfg80211.o(.data)
    .data                                    0x20000200   Section        1  moal_shim.o(.data)
    g_moal_lock_cnt                          0x20000200   Data           1  moal_shim.o(.data)
    .data                                    0x20000204   Section        4  moal_uap.o(.data)
    buf                                      0x20000204   Data           4  moal_uap.o(.data)
    .data                                    0x20000208   Section        1  mlan_11n.o(.data)
    dialog_tok                               0x20000208   Data           1  mlan_11n.o(.data)
    .data                                    0x2000020c   Section        4  mlan_cmdevt.o(.data)
    i                                        0x2000020c   Data           4  mlan_cmdevt.o(.data)
    .data                                    0x20000210   Section        1  mlan_meas.o(.data)
    auto_dialog_tok                          0x20000210   Data           1  mlan_meas.o(.data)
    .data                                    0x20000211   Section       16  mlan_scan.o(.data)
    wpa_oui                                  0x20000211   Data           8  mlan_scan.o(.data)
    rsn_oui                                  0x20000219   Data           8  mlan_scan.o(.data)
    .data                                    0x20000224   Section       16  mlan_shim.o(.data)
    .data                                    0x20000234   Section       20  mlan_wmm.o(.data)
    i                                        0x20000234   Data           4  mlan_wmm.o(.data)
    .data                                    0x20000248   Section       24  sys_misc.o(.data)
    last_stat                                0x2000024b   Data           1  sys_misc.o(.data)
    led_stat                                 0x2000024c   Data           1  sys_misc.o(.data)
    led_stat                                 0x2000024d   Data           1  sys_misc.o(.data)
    led_bright_cnt                           0x20000250   Data           4  sys_misc.o(.data)
    once                                     0x20000254   Data           4  sys_misc.o(.data)
    .data                                    0x20000260   Section       12  wifi.o(.data)
    .data                                    0x2000026c   Section        4  skbuff.o(.data)
    g_skb_alloc_size                         0x2000026c   Data           4  skbuff.o(.data)
    .data                                    0x20000270   Section        4  usr_cfg.o(.data)
    .data                                    0x20000274   Section       24  test_wifi.o(.data)
    .data                                    0x2000028c   Section        8  main.o(.data)
    .data                                    0x20000294   Section        1  main.o(.data)
    .data                                    0x20000298   Section       24  test_tcpip.o(.data)
    .data                                    0x200002b0   Section        8  tcpapp.o(.data)
    .data                                    0x200002b8   Section       16  debug.o(.data)
    g_seq                                    0x200002b9   Data           1  debug.o(.data)
    .data                                    0x200002c8   Section        4  stdout.o(.data)
    .data                                    0x200002cc   Section        4  mvars.o(.data)
    .data                                    0x200002d0   Section        4  mvars.o(.data)
    monitor_item_table                       0x200002d4   Section       32  memory.o(monitor_item_table)
    monitor_item_table                       0x200002f4   Section       16  ethernetif.o(monitor_item_table)
    monitor_item_table                       0x20000304   Section        8  mlan_join.o(monitor_item_table)
    monitor_item_table                       0x2000030c   Section        8  mlan_scan.o(monitor_item_table)
    monitor_item_table                       0x20000314   Section       16  mlan_sdio.o(monitor_item_table)
    monitor_item_table                       0x20000324   Section       16  test_tcpip.o(monitor_item_table)
    monitor_item_table                       0x20000334   Section        8  debug.o(monitor_item_table)
    .bss                                     0x2000033c   Section       60  sdcard.o(.bss)
    .bss                                     0x20000378   Section      712  usart.o(.bss)
    .bss                                     0x20000640   Section       24  w25p80.o(.bss)
    .bss                                     0x20000658   Section     2948  os_core.o(.bss)
    .bss                                     0x200011dc   Section       80  os_core.o(.bss)
    .bss                                     0x2000122c   Section      384  os_core.o(.bss)
    .bss                                     0x200013ac   Section     1280  os_core.o(.bss)
    .bss                                     0x200018ac   Section      256  os_core.o(.bss)
    .bss                                     0x200019ac   Section       64  os_core.o(.bss)
    .bss                                     0x200019ec   Section      192  sockets.o(.bss)
    .bss                                     0x20001aac   Section       12  sys_arch.o(.bss)
    .bss                                     0x20001ab8   Section       45  dhcp.o(.bss)
    .bss                                     0x20001ae8   Section      184  dns.o(.bss)
    dns_table                                0x20001ae8   Data         184  dns.o(.bss)
    .bss                                     0x20001ba0   Section      232  stats.o(.bss)
    .bss                                     0x20001c88   Section       16  tcp_in.o(.bss)
    inseg                                    0x20001c88   Data          16  tcp_in.o(.bss)
    .bss                                     0x20001c98   Section       16  ip_addr.o(.bss)
    str                                      0x20001c98   Data          16  ip_addr.o(.bss)
    .bss                                     0x20001ca8   Section       80  etharp.o(.bss)
    arp_table                                0x20001ca8   Data          80  etharp.o(.bss)
    .bss                                     0x20001cf8   Section      100  dhcpd.o(.bss)
    .bss                                     0x20001d5c   Section      320  moal_shim.o(.bss)
    g_moal_lock                              0x20001d5c   Data         320  moal_shim.o(.bss)
    .bss                                     0x20001e9c   Section       55  usr_cfg.o(.bss)
    .bss                                     0x20001ed4   Section     1044  test_tcpip.o(.bss)
    .bss                                     0x200022e8   Section       56  tcpapp.o(.bss)
    HEAP                                     0x20002320   Section        0  startup_stm32f10x_hd.o(HEAP)
    STACK                                    0x20002320   Section     1024  startup_stm32f10x_hd.o(STACK)

    Global Symbols

    Symbol Name                              Value     Ov Type        Size  Object(Section)

    BuildAttributes$$THM_ISAv4$P$D$K$B$S$PE$A:L22UL41UL21$X:L11$S22US41US21$IEEE1$IW$USESV6$~STKCKD$USESV7$~SHL$OSPACE$ROPI$EBA8$MICROLIB$REQ8$PRES8$EABIv2 0x00000000   Number         0  anon$$obj.o ABSOLUTE
    __ARM_use_no_argv                        0x00000000   Number         0  main.o ABSOLUTE
    _printf_a                                0x00000000   Number         0  stubs.o ABSOLUTE
    _printf_c                                0x00000000   Number         0  stubs.o ABSOLUTE
    _printf_charcount                        0x00000000   Number         0  stubs.o ABSOLUTE
    _printf_d                                0x00000000   Number         0  stubs.o ABSOLUTE
    _printf_e                                0x00000000   Number         0  stubs.o ABSOLUTE
    _printf_f                                0x00000000   Number         0  stubs.o ABSOLUTE
    _printf_flags                            0x00000000   Number         0  stubs.o ABSOLUTE
    _printf_fp_dec                           0x00000000   Number         0  stubs.o ABSOLUTE
    _printf_fp_hex                           0x00000000   Number         0  stubs.o ABSOLUTE
    _printf_g                                0x00000000   Number         0  stubs.o ABSOLUTE
    _printf_i                                0x00000000   Number         0  stubs.o ABSOLUTE
    _printf_int_dec                          0x00000000   Number         0  stubs.o ABSOLUTE
    _printf_l                                0x00000000   Number         0  stubs.o ABSOLUTE
    _printf_lc                               0x00000000   Number         0  stubs.o ABSOLUTE
    _printf_ll                               0x00000000   Number         0  stubs.o ABSOLUTE
    _printf_lld                              0x00000000   Number         0  stubs.o ABSOLUTE
    _printf_lli                              0x00000000   Number         0  stubs.o ABSOLUTE
    _printf_llo                              0x00000000   Number         0  stubs.o ABSOLUTE
    _printf_llu                              0x00000000   Number         0  stubs.o ABSOLUTE
    _printf_llx                              0x00000000   Number         0  stubs.o ABSOLUTE
    _printf_longlong_dec                     0x00000000   Number         0  stubs.o ABSOLUTE
    _printf_longlong_hex                     0x00000000   Number         0  stubs.o ABSOLUTE
    _printf_longlong_oct                     0x00000000   Number         0  stubs.o ABSOLUTE
    _printf_ls                               0x00000000   Number         0  stubs.o ABSOLUTE
    _printf_mbtowc                           0x00000000   Number         0  stubs.o ABSOLUTE
    _printf_n                                0x00000000   Number         0  stubs.o ABSOLUTE
    _printf_o                                0x00000000   Number         0  stubs.o ABSOLUTE
    _printf_p                                0x00000000   Number         0  stubs.o ABSOLUTE
    _printf_percent                          0x00000000   Number         0  stubs.o ABSOLUTE
    _printf_pre_padding                      0x00000000   Number         0  stubs.o ABSOLUTE
    _printf_return_value                     0x00000000   Number         0  stubs.o ABSOLUTE
    _printf_s                                0x00000000   Number         0  stubs.o ABSOLUTE
    _printf_sizespec                         0x00000000   Number         0  stubs.o ABSOLUTE
    _printf_str                              0x00000000   Number         0  stubs.o ABSOLUTE
    _printf_truncate_signed                  0x00000000   Number         0  stubs.o ABSOLUTE
    _printf_truncate_unsigned                0x00000000   Number         0  stubs.o ABSOLUTE
    _printf_u                                0x00000000   Number         0  stubs.o ABSOLUTE
    _printf_wc                               0x00000000   Number         0  stubs.o ABSOLUTE
    _printf_wctomb                           0x00000000   Number         0  stubs.o ABSOLUTE
    _printf_widthprec                        0x00000000   Number         0  stubs.o ABSOLUTE
    _printf_x                                0x00000000   Number         0  stubs.o ABSOLUTE
    __Vectors_Size                           0x00000130   Number         0  startup_stm32f10x_hd.o ABSOLUTE
    __Vectors                                0x08000000   Data           4  startup_stm32f10x_hd.o(RESET)
    __Vectors_End                            0x08000130   Data           0  startup_stm32f10x_hd.o(RESET)
    __main                                   0x08000131   Thumb Code     0  entry.o(.ARM.Collect$$$$00000000)
    _main_stk                                0x08000131   Thumb Code     0  entry2.o(.ARM.Collect$$$$00000001)
    _main_scatterload                        0x08000135   Thumb Code     0  entry5.o(.ARM.Collect$$$$00000004)
    __main_after_scatterload                 0x08000139   Thumb Code     0  entry5.o(.ARM.Collect$$$$00000004)
    _main_init                               0x08000139   Thumb Code     0  entry7.o(.ARM.Collect$$$$00000007)
    DMA_DeInit                               0x08000145   Thumb Code   236  stm32f10x_dma.o(.text)
    DMA_Init                                 0x08000231   Thumb Code    76  stm32f10x_dma.o(.text)
    DMA_StructInit                           0x0800027d   Thumb Code    26  stm32f10x_dma.o(.text)
    DMA_Cmd                                  0x08000297   Thumb Code    34  stm32f10x_dma.o(.text)
    DMA_ITConfig                             0x080002b9   Thumb Code    32  stm32f10x_dma.o(.text)
    DMA_GetCurrDataCounter                   0x080002d9   Thumb Code     6  stm32f10x_dma.o(.text)
    DMA_GetFlagStatus                        0x080002df   Thumb Code    26  stm32f10x_dma.o(.text)
    DMA_ClearFlag                            0x080002f9   Thumb Code    16  stm32f10x_dma.o(.text)
    DMA_GetITStatus                          0x08000309   Thumb Code    26  stm32f10x_dma.o(.text)
    DMA_ClearITPendingBit                    0x08000323   Thumb Code    16  stm32f10x_dma.o(.text)
    GPIO_DeInit                              0x08000345   Thumb Code   152  stm32f10x_gpio.o(.text)
    GPIO_AFIODeInit                          0x080003dd   Thumb Code    22  stm32f10x_gpio.o(.text)
    GPIO_Init                                0x080003f3   Thumb Code   156  stm32f10x_gpio.o(.text)
    GPIO_StructInit                          0x0800048f   Thumb Code    16  stm32f10x_gpio.o(.text)
    GPIO_ReadInputDataBit                    0x0800049f   Thumb Code    14  stm32f10x_gpio.o(.text)
    GPIO_ReadInputData                       0x080004ad   Thumb Code     6  stm32f10x_gpio.o(.text)
    GPIO_ReadOutputDataBit                   0x080004b3   Thumb Code    14  stm32f10x_gpio.o(.text)
    GPIO_ReadOutputData                      0x080004c1   Thumb Code     6  stm32f10x_gpio.o(.text)
    GPIO_SetBits                             0x080004c7   Thumb Code     4  stm32f10x_gpio.o(.text)
    GPIO_ResetBits                           0x080004cb   Thumb Code     4  stm32f10x_gpio.o(.text)
    GPIO_WriteBit                            0x080004cf   Thumb Code    10  stm32f10x_gpio.o(.text)
    GPIO_Write                               0x080004d9   Thumb Code     4  stm32f10x_gpio.o(.text)
    GPIO_PinLockConfig                       0x080004dd   Thumb Code    16  stm32f10x_gpio.o(.text)
    GPIO_EventOutputConfig                   0x080004ed   Thumb Code    22  stm32f10x_gpio.o(.text)
    GPIO_EventOutputCmd                      0x08000503   Thumb Code     6  stm32f10x_gpio.o(.text)
    GPIO_PinRemapConfig                      0x08000509   Thumb Code    90  stm32f10x_gpio.o(.text)
    GPIO_EXTILineConfig                      0x08000563   Thumb Code    48  stm32f10x_gpio.o(.text)
    RCC_DeInit                               0x080005a5   Thumb Code    60  stm32f10x_rcc.o(.text)
    RCC_HSEConfig                            0x080005e1   Thumb Code    68  stm32f10x_rcc.o(.text)
    RCC_GetFlagStatus                        0x08000625   Thumb Code    42  stm32f10x_rcc.o(.text)
    RCC_WaitForHSEStartUp                    0x0800064f   Thumb Code    36  stm32f10x_rcc.o(.text)
    RCC_AdjustHSICalibrationValue            0x08000673   Thumb Code    30  stm32f10x_rcc.o(.text)
    RCC_HSICmd                               0x08000691   Thumb Code     6  stm32f10x_rcc.o(.text)
    RCC_PLLConfig                            0x08000697   Thumb Code    32  stm32f10x_rcc.o(.text)
    RCC_PLLCmd                               0x080006b7   Thumb Code     6  stm32f10x_rcc.o(.text)
    RCC_SYSCLKConfig                         0x080006bd   Thumb Code    28  stm32f10x_rcc.o(.text)
    RCC_GetSYSCLKSource                      0x080006d9   Thumb Code    10  stm32f10x_rcc.o(.text)
    RCC_HCLKConfig                           0x080006e3   Thumb Code    28  stm32f10x_rcc.o(.text)
    RCC_PCLK1Config                          0x080006ff   Thumb Code    28  stm32f10x_rcc.o(.text)
    RCC_PCLK2Config                          0x0800071b   Thumb Code    30  stm32f10x_rcc.o(.text)
    RCC_ITConfig                             0x08000739   Thumb Code    36  stm32f10x_rcc.o(.text)
    RCC_USBCLKConfig                         0x0800075d   Thumb Code     6  stm32f10x_rcc.o(.text)
    RCC_ADCCLKConfig                         0x08000763   Thumb Code    28  stm32f10x_rcc.o(.text)
    RCC_LSEConfig                            0x0800077f   Thumb Code    50  stm32f10x_rcc.o(.text)
    RCC_LSICmd                               0x080007b1   Thumb Code     6  stm32f10x_rcc.o(.text)
    RCC_RTCCLKConfig                         0x080007b7   Thumb Code    24  stm32f10x_rcc.o(.text)
    RCC_RTCCLKCmd                            0x080007cf   Thumb Code     6  stm32f10x_rcc.o(.text)
    RCC_GetClocksFreq                        0x080007d5   Thumb Code   140  stm32f10x_rcc.o(.text)
    RCC_AHBPeriphClockCmd                    0x08000861   Thumb Code    32  stm32f10x_rcc.o(.text)
    RCC_APB2PeriphClockCmd                   0x08000881   Thumb Code    32  stm32f10x_rcc.o(.text)
    RCC_APB1PeriphClockCmd                   0x080008a1   Thumb Code    32  stm32f10x_rcc.o(.text)
    RCC_APB2PeriphResetCmd                   0x080008c1   Thumb Code    32  stm32f10x_rcc.o(.text)
    RCC_APB1PeriphResetCmd                   0x080008e1   Thumb Code    32  stm32f10x_rcc.o(.text)
    RCC_BackupResetCmd                       0x08000901   Thumb Code     6  stm32f10x_rcc.o(.text)
    RCC_ClockSecuritySystemCmd               0x08000907   Thumb Code     6  stm32f10x_rcc.o(.text)
    RCC_MCOConfig                            0x0800090d   Thumb Code     6  stm32f10x_rcc.o(.text)
    RCC_ClearFlag                            0x08000913   Thumb Code    24  stm32f10x_rcc.o(.text)
    RCC_GetITStatus                          0x0800092b   Thumb Code    16  stm32f10x_rcc.o(.text)
    RCC_ClearITPendingBit                    0x0800093b   Thumb Code     6  stm32f10x_rcc.o(.text)
    SDIO_DeInit                              0x08000979   Thumb Code    26  stm32f10x_sdio.o(.text)
    SDIO_Init                                0x08000993   Thumb Code    56  stm32f10x_sdio.o(.text)
    SDIO_StructInit                          0x080009cb   Thumb Code    16  stm32f10x_sdio.o(.text)
    SDIO_ClockCmd                            0x080009db   Thumb Code     6  stm32f10x_sdio.o(.text)
    SDIO_SetPowerState                       0x080009e1   Thumb Code    32  stm32f10x_sdio.o(.text)
    SDIO_GetPowerState                       0x08000a01   Thumb Code    10  stm32f10x_sdio.o(.text)
    SDIO_ITConfig                            0x08000a0b   Thumb Code    32  stm32f10x_sdio.o(.text)
    SDIO_DMACmd                              0x08000a2b   Thumb Code     6  stm32f10x_sdio.o(.text)
    SDIO_SendCommand                         0x08000a31   Thumb Code    50  stm32f10x_sdio.o(.text)
    SDIO_CmdStructInit                       0x08000a63   Thumb Code    14  stm32f10x_sdio.o(.text)
    SDIO_GetCommandResponse                  0x08000a71   Thumb Code     8  stm32f10x_sdio.o(.text)
    SDIO_GetResponse                         0x08000a79   Thumb Code     8  stm32f10x_sdio.o(.text)
    SDIO_DataConfig                          0x08000a81   Thumb Code    54  stm32f10x_sdio.o(.text)
    SDIO_DataStructInit                      0x08000ab7   Thumb Code    20  stm32f10x_sdio.o(.text)
    SDIO_GetDataCounter                      0x08000acb   Thumb Code     6  stm32f10x_sdio.o(.text)
    SDIO_ReadData                            0x08000ad1   Thumb Code     6  stm32f10x_sdio.o(.text)
    SDIO_WriteData                           0x08000ad7   Thumb Code     6  stm32f10x_sdio.o(.text)
    SDIO_GetFIFOCount                        0x08000add   Thumb Code     6  stm32f10x_sdio.o(.text)
    SDIO_StartSDIOReadWait                   0x08000ae3   Thumb Code     6  stm32f10x_sdio.o(.text)
    SDIO_StopSDIOReadWait                    0x08000ae9   Thumb Code     6  stm32f10x_sdio.o(.text)
    SDIO_SetSDIOReadWaitMode                 0x08000aef   Thumb Code     6  stm32f10x_sdio.o(.text)
    SDIO_SetSDIOOperation                    0x08000af5   Thumb Code     6  stm32f10x_sdio.o(.text)
    SDIO_SendSDIOSuspendCmd                  0x08000afb   Thumb Code     6  stm32f10x_sdio.o(.text)
    SDIO_CommandCompletionCmd                0x08000b01   Thumb Code     6  stm32f10x_sdio.o(.text)
    SDIO_CEATAITCmd                          0x08000b07   Thumb Code    10  stm32f10x_sdio.o(.text)
    SDIO_SendCEATACmd                        0x08000b11   Thumb Code     6  stm32f10x_sdio.o(.text)
    SDIO_GetFlagStatus                       0x08000b17   Thumb Code    16  stm32f10x_sdio.o(.text)
    SDIO_ClearFlag                           0x08000b27   Thumb Code     6  stm32f10x_sdio.o(.text)
    SDIO_GetITStatus                         0x08000b2d   Thumb Code    16  stm32f10x_sdio.o(.text)
    SDIO_ClearITPendingBit                   0x08000b3d   Thumb Code     6  stm32f10x_sdio.o(.text)
    SPI_I2S_DeInit                           0x08000b79   Thumb Code    72  stm32f10x_spi.o(.text)
    SPI_Init                                 0x08000bc1   Thumb Code    74  stm32f10x_spi.o(.text)
    I2S_Init                                 0x08000c0b   Thumb Code   178  stm32f10x_spi.o(.text)
    SPI_StructInit                           0x08000cbd   Thumb Code    24  stm32f10x_spi.o(.text)
    I2S_StructInit                           0x08000cd5   Thumb Code    18  stm32f10x_spi.o(.text)
    SPI_Cmd                                  0x08000ce7   Thumb Code    34  stm32f10x_spi.o(.text)
    I2S_Cmd                                  0x08000d09   Thumb Code    34  stm32f10x_spi.o(.text)
    SPI_I2S_ITConfig                         0x08000d2b   Thumb Code    44  stm32f10x_spi.o(.text)
    SPI_I2S_DMACmd                           0x08000d57   Thumb Code    32  stm32f10x_spi.o(.text)
    SPI_I2S_SendData                         0x08000d77   Thumb Code     4  stm32f10x_spi.o(.text)
    SPI_I2S_ReceiveData                      0x08000d7b   Thumb Code     4  stm32f10x_spi.o(.text)
    SPI_NSSInternalSoftwareConfig            0x08000d7f   Thumb Code    40  stm32f10x_spi.o(.text)
    SPI_SSOutputCmd                          0x08000da7   Thumb Code    34  stm32f10x_spi.o(.text)
    SPI_DataSizeConfig                       0x08000dc9   Thumb Code    32  stm32f10x_spi.o(.text)
    SPI_TransmitCRC                          0x08000de9   Thumb Code    24  stm32f10x_spi.o(.text)
    SPI_CalculateCRC                         0x08000e01   Thumb Code    34  stm32f10x_spi.o(.text)
    SPI_GetCRC                               0x08000e23   Thumb Code    12  stm32f10x_spi.o(.text)
    SPI_GetCRCPolynomial                     0x08000e2f   Thumb Code     4  stm32f10x_spi.o(.text)
    SPI_BiDirectionalLineConfig              0x08000e33   Thumb Code    38  stm32f10x_spi.o(.text)
    SPI_I2S_GetFlagStatus                    0x08000e59   Thumb Code    14  stm32f10x_spi.o(.text)
    SPI_I2S_ClearFlag                        0x08000e67   Thumb Code     6  stm32f10x_spi.o(.text)
    SPI_I2S_GetITStatus                      0x08000e6d   Thumb Code    42  stm32f10x_spi.o(.text)
    SPI_I2S_ClearITPendingBit                0x08000e97   Thumb Code    14  stm32f10x_spi.o(.text)
    USART_DeInit                             0x08000ea9   Thumb Code    98  stm32f10x_usart.o(.text)
    USART_Init                               0x08000f0b   Thumb Code   146  stm32f10x_usart.o(.text)
    USART_StructInit                         0x08000f9d   Thumb Code    22  stm32f10x_usart.o(.text)
    USART_ClockInit                          0x08000fb3   Thumb Code    44  stm32f10x_usart.o(.text)
    USART_ClockStructInit                    0x08000fdf   Thumb Code    12  stm32f10x_usart.o(.text)
    USART_Cmd                                0x08000feb   Thumb Code    34  stm32f10x_usart.o(.text)
    USART_ITConfig                           0x0800100d   Thumb Code    66  stm32f10x_usart.o(.text)
    USART_DMACmd                             0x0800104f   Thumb Code    32  stm32f10x_usart.o(.text)
    USART_SetAddress                         0x0800106f   Thumb Code    32  stm32f10x_usart.o(.text)
    USART_WakeUpConfig                       0x0800108f   Thumb Code    32  stm32f10x_usart.o(.text)
    USART_ReceiverWakeUpCmd                  0x080010af   Thumb Code    34  stm32f10x_usart.o(.text)
    USART_LINBreakDetectLengthConfig         0x080010d1   Thumb Code    32  stm32f10x_usart.o(.text)
    USART_LINCmd                             0x080010f1   Thumb Code    34  stm32f10x_usart.o(.text)
    USART_SendData                           0x08001113   Thumb Code     8  stm32f10x_usart.o(.text)
    USART_ReceiveData                        0x0800111b   Thumb Code     8  stm32f10x_usart.o(.text)
    USART_SendBreak                          0x08001123   Thumb Code    24  stm32f10x_usart.o(.text)
    USART_SetGuardTime                       0x0800113b   Thumb Code    32  stm32f10x_usart.o(.text)
    USART_SetPrescaler                       0x0800115b   Thumb Code    32  stm32f10x_usart.o(.text)
    USART_SmartCardCmd                       0x0800117b   Thumb Code    34  stm32f10x_usart.o(.text)
    USART_SmartCardNACKCmd                   0x0800119d   Thumb Code    34  stm32f10x_usart.o(.text)
    USART_HalfDuplexCmd                      0x080011bf   Thumb Code    34  stm32f10x_usart.o(.text)
    USART_IrDAConfig                         0x080011e1   Thumb Code    32  stm32f10x_usart.o(.text)
    USART_IrDACmd                            0x08001201   Thumb Code    34  stm32f10x_usart.o(.text)
    USART_GetFlagStatus                      0x08001223   Thumb Code    14  stm32f10x_usart.o(.text)
    USART_ClearFlag                          0x08001231   Thumb Code     6  stm32f10x_usart.o(.text)
    USART_GetITStatus                        0x08001237   Thumb Code    62  stm32f10x_usart.o(.text)
    USART_ClearITPendingBit                  0x08001275   Thumb Code    40  stm32f10x_usart.o(.text)
    SystemInit_ExtMemCtl                     0x0800129d   Thumb Code     2  startup_stm32f10x_hd.o(.text)
    Reset_Handler                            0x0800129f   Thumb Code    14  startup_stm32f10x_hd.o(.text)
    NMI_Handler                              0x080012ad   Thumb Code     2  startup_stm32f10x_hd.o(.text)
    MemManage_Handler                        0x080012b1   Thumb Code     2  startup_stm32f10x_hd.o(.text)
    BusFault_Handler                         0x080012b3   Thumb Code     2  startup_stm32f10x_hd.o(.text)
    UsageFault_Handler                       0x080012b5   Thumb Code     2  startup_stm32f10x_hd.o(.text)
    SVC_Handler                              0x080012b7   Thumb Code     2  startup_stm32f10x_hd.o(.text)
    DebugMon_Handler                         0x080012b9   Thumb Code     2  startup_stm32f10x_hd.o(.text)
    ADC1_2_IRQHandler                        0x080012bf   Thumb Code     0  startup_stm32f10x_hd.o(.text)
    ADC3_IRQHandler                          0x080012bf   Thumb Code     0  startup_stm32f10x_hd.o(.text)
    CAN1_RX1_IRQHandler                      0x080012bf   Thumb Code     0  startup_stm32f10x_hd.o(.text)
    CAN1_SCE_IRQHandler                      0x080012bf   Thumb Code     0  startup_stm32f10x_hd.o(.text)
    DMA1_Channel1_IRQHandler                 0x080012bf   Thumb Code     0  startup_stm32f10x_hd.o(.text)
    DMA1_Channel2_IRQHandler                 0x080012bf   Thumb Code     0  startup_stm32f10x_hd.o(.text)
    DMA1_Channel3_IRQHandler                 0x080012bf   Thumb Code     0  startup_stm32f10x_hd.o(.text)
    DMA1_Channel4_IRQHandler                 0x080012bf   Thumb Code     0  startup_stm32f10x_hd.o(.text)
    DMA1_Channel5_IRQHandler                 0x080012bf   Thumb Code     0  startup_stm32f10x_hd.o(.text)
    DMA1_Channel6_IRQHandler                 0x080012bf   Thumb Code     0  startup_stm32f10x_hd.o(.text)
    DMA1_Channel7_IRQHandler                 0x080012bf   Thumb Code     0  startup_stm32f10x_hd.o(.text)
    DMA2_Channel1_IRQHandler                 0x080012bf   Thumb Code     0  startup_stm32f10x_hd.o(.text)
    DMA2_Channel2_IRQHandler                 0x080012bf   Thumb Code     0  startup_stm32f10x_hd.o(.text)
    DMA2_Channel3_IRQHandler                 0x080012bf   Thumb Code     0  startup_stm32f10x_hd.o(.text)
    DMA2_Channel4_5_IRQHandler               0x080012bf   Thumb Code     0  startup_stm32f10x_hd.o(.text)
    EXTI0_IRQHandler                         0x080012bf   Thumb Code     0  startup_stm32f10x_hd.o(.text)
    EXTI15_10_IRQHandler                     0x080012bf   Thumb Code     0  startup_stm32f10x_hd.o(.text)
    EXTI1_IRQHandler                         0x080012bf   Thumb Code     0  startup_stm32f10x_hd.o(.text)
    EXTI2_IRQHandler                         0x080012bf   Thumb Code     0  startup_stm32f10x_hd.o(.text)
    EXTI3_IRQHandler                         0x080012bf   Thumb Code     0  startup_stm32f10x_hd.o(.text)
    EXTI4_IRQHandler                         0x080012bf   Thumb Code     0  startup_stm32f10x_hd.o(.text)
    EXTI9_5_IRQHandler                       0x080012bf   Thumb Code     0  startup_stm32f10x_hd.o(.text)
    FLASH_IRQHandler                         0x080012bf   Thumb Code     0  startup_stm32f10x_hd.o(.text)
    FSMC_IRQHandler                          0x080012bf   Thumb Code     0  startup_stm32f10x_hd.o(.text)
    I2C1_ER_IRQHandler                       0x080012bf   Thumb Code     0  startup_stm32f10x_hd.o(.text)
    I2C1_EV_IRQHandler                       0x080012bf   Thumb Code     0  startup_stm32f10x_hd.o(.text)
    I2C2_ER_IRQHandler                       0x080012bf   Thumb Code     0  startup_stm32f10x_hd.o(.text)
    I2C2_EV_IRQHandler                       0x080012bf   Thumb Code     0  startup_stm32f10x_hd.o(.text)
    PVD_IRQHandler                           0x080012bf   Thumb Code     0  startup_stm32f10x_hd.o(.text)
    RCC_IRQHandler                           0x080012bf   Thumb Code     0  startup_stm32f10x_hd.o(.text)
    RTCAlarm_IRQHandler                      0x080012bf   Thumb Code     0  startup_stm32f10x_hd.o(.text)
    RTC_IRQHandler                           0x080012bf   Thumb Code     0  startup_stm32f10x_hd.o(.text)
    SPI1_IRQHandler                          0x080012bf   Thumb Code     0  startup_stm32f10x_hd.o(.text)
    SPI3_IRQHandler                          0x080012bf   Thumb Code     0  startup_stm32f10x_hd.o(.text)
    TAMPER_IRQHandler                        0x080012bf   Thumb Code     0  startup_stm32f10x_hd.o(.text)
    TIM1_BRK_IRQHandler                      0x080012bf   Thumb Code     0  startup_stm32f10x_hd.o(.text)
    TIM1_CC_IRQHandler                       0x080012bf   Thumb Code     0  startup_stm32f10x_hd.o(.text)
    TIM1_TRG_COM_IRQHandler                  0x080012bf   Thumb Code     0  startup_stm32f10x_hd.o(.text)
    TIM1_UP_IRQHandler                       0x080012bf   Thumb Code     0  startup_stm32f10x_hd.o(.text)
    TIM2_IRQHandler                          0x080012bf   Thumb Code     0  startup_stm32f10x_hd.o(.text)
    TIM3_IRQHandler                          0x080012bf   Thumb Code     0  startup_stm32f10x_hd.o(.text)
    TIM4_IRQHandler                          0x080012bf   Thumb Code     0  startup_stm32f10x_hd.o(.text)
    TIM5_IRQHandler                          0x080012bf   Thumb Code     0  startup_stm32f10x_hd.o(.text)
    TIM6_IRQHandler                          0x080012bf   Thumb Code     0  startup_stm32f10x_hd.o(.text)
    TIM7_IRQHandler                          0x080012bf   Thumb Code     0  startup_stm32f10x_hd.o(.text)
    TIM8_BRK_IRQHandler                      0x080012bf   Thumb Code     0  startup_stm32f10x_hd.o(.text)
    TIM8_CC_IRQHandler                       0x080012bf   Thumb Code     0  startup_stm32f10x_hd.o(.text)
    TIM8_TRG_COM_IRQHandler                  0x080012bf   Thumb Code     0  startup_stm32f10x_hd.o(.text)
    TIM8_UP_IRQHandler                       0x080012bf   Thumb Code     0  startup_stm32f10x_hd.o(.text)
    UART4_IRQHandler                         0x080012bf   Thumb Code     0  startup_stm32f10x_hd.o(.text)
    UART5_IRQHandler                         0x080012bf   Thumb Code     0  startup_stm32f10x_hd.o(.text)
    USART2_IRQHandler                        0x080012bf   Thumb Code     0  startup_stm32f10x_hd.o(.text)
    USBWakeUp_IRQHandler                     0x080012bf   Thumb Code     0  startup_stm32f10x_hd.o(.text)
    USB_HP_CAN1_TX_IRQHandler                0x080012bf   Thumb Code     0  startup_stm32f10x_hd.o(.text)
    USB_LP_CAN1_RX0_IRQHandler               0x080012bf   Thumb Code     0  startup_stm32f10x_hd.o(.text)
    WWDG_IRQHandler                          0x080012bf   Thumb Code     0  startup_stm32f10x_hd.o(.text)
    NVIC_PriorityGroupConfig                 0x080012cd   Thumb Code    10  misc.o(.text)
    NVIC_Init                                0x080012d7   Thumb Code   110  misc.o(.text)
    NVIC_SetVectorTable                      0x08001345   Thumb Code    12  misc.o(.text)
    NVIC_SystemLPConfig                      0x08001351   Thumb Code    38  misc.o(.text)
    SysTick_CLKSourceConfig                  0x08001377   Thumb Code    38  misc.o(.text)
    SystemInit                               0x080013ad   Thumb Code    50  system_stm32f10x.o(.text)
    enable_sdio_int                          0x0800147d   Thumb Code     8  sdcard.o(.text)
    mmc_io_rw_direct_host                    0x08001529   Thumb Code   178  sdcard.o(.text)
    mmc_io_rw_direct                         0x080015db   Thumb Code    16  sdcard.o(.text)
    mmc_sdio_switch_hs                       0x080015eb   Thumb Code   148  sdcard.o(.text)
    sdio_read_common_cis                     0x080017cd   Thumb Code     4  sdcard.o(.text)
    sdio_read_cccr                           0x080017d1   Thumb Code   520  sdcard.o(.text)
    SD_SelectDeselect                        0x08001ac9   Thumb Code    96  sdcard.o(.text)
    mmc_send_relative_addr                   0x08001b29   Thumb Code   102  sdcard.o(.text)
    mmc_send_io_op_cond                      0x08001b8f   Thumb Code   184  sdcard.o(.text)
    mmc_go_idle                              0x08001c47   Thumb Code    68  sdcard.o(.text)
    SD_Init                                  0x08001c8b   Thumb Code   558  sdcard.o(.text)
    mmc_send_if_cond                         0x08001eb9   Thumb Code   112  sdcard.o(.text)
    dma_start_send_data                      0x08001f29   Thumb Code   140  sdcard.o(.text)
    SDIO_IRQHandler                          0x08001fb5   Thumb Code   206  sdcard.o(.text)
    mmc_io_rw_extended                       0x08002083   Thumb Code   840  sdcard.o(.text)
    sdio_enable_wide                         0x080023cb   Thumb Code   144  sdcard.o(.text)
    uart1_init                               0x08002561   Thumb Code   234  usart.o(.text)
    uart3_init                               0x0800264b   Thumb Code     2  usart.o(.text)
    fputc                                    0x0800264d   Thumb Code    74  usart.o(.text)
    uart3_send_next                          0x08002697   Thumb Code    56  usart.o(.text)
    uart3_send                               0x080026cf   Thumb Code   146  usart.o(.text)
    uart1_send_next                          0x08002761   Thumb Code    64  usart.o(.text)
    uart1_send                               0x080027a1   Thumb Code   164  usart.o(.text)
    uart0_read_data                          0x08002845   Thumb Code    44  usart.o(.text)
    clear_buf_uart1                          0x08002871   Thumb Code    54  usart.o(.text)
    USART1_IRQHandler                        0x080028a7   Thumb Code    68  usart.o(.text)
    USART3_IRQHandler                        0x080028eb   Thumb Code    64  usart.o(.text)
    _mem_init                                0x080029bd   Thumb Code    14  driver_misc.o(.text)
    init_rng                                 0x080029cb   Thumb Code     2  driver_misc.o(.text)
    init_systick                             0x080029cd   Thumb Code    60  driver_misc.o(.text)
    get_random                               0x08002a09   Thumb Code     4  driver_misc.o(.text)
    gpio_cfg                                 0x08002a0d   Thumb Code    24  driver_misc.o(.text)
    driver_gpio_init                         0x08002a25   Thumb Code     8  driver_misc.o(.text)
    check_rst_stat                           0x08002a2d   Thumb Code   324  driver_misc.o(.text)
    driver_misc_init                         0x08002b71   Thumb Code    12  driver_misc.o(.text)
    spi_r                                    0x08002bf5   Thumb Code    84  w25p80.o(.text)
    spi_w                                    0x08002c49   Thumb Code    48  w25p80.o(.text)
    spi_write                                0x08002c79   Thumb Code    18  w25p80.o(.text)
    spi_write_then_write                     0x08002c8b   Thumb Code    30  w25p80.o(.text)
    spi_write_then_read                      0x08002ca9   Thumb Code    38  w25p80.o(.text)
    m25p80_erase                             0x08002d5f   Thumb Code   148  w25p80.o(.text)
    m25p80_read                              0x08002df3   Thumb Code    76  w25p80.o(.text)
    cmp_flash_data                           0x08002e3f   Thumb Code   140  w25p80.o(.text)
    m25p80_write                             0x08002ecb   Thumb Code   244  w25p80.o(.text)
    m25p80_read_id                           0x08002fbf   Thumb Code   150  w25p80.o(.text)
    read_firmware                            0x08003055   Thumb Code    72  w25p80.o(.text)
    test_write_firmware_to_spi_flash         0x0800309d   Thumb Code   164  w25p80.o(.text)
    m25p80_init                              0x08003141   Thumb Code   206  w25p80.o(.text)
    SPI2_IRQHandler                          0x0800320f   Thumb Code     8  w25p80.o(.text)
    OS_StrLen                                0x080032ed   Thumb Code    20  os_core.o(.text)
    OSEventNameGet                           0x08003301   Thumb Code    74  os_core.o(.text)
    OSEventNameSet                           0x0800334b   Thumb Code    58  os_core.o(.text)
    OS_EventTaskRemoveMulti                  0x08003385   Thumb Code    38  os_core.o(.text)
    OS_Sched                                 0x080033ab   Thumb Code    64  os_core.o(.text)
    OS_EventTaskWaitMulti                    0x080033eb   Thumb Code    86  os_core.o(.text)
    OSEventPendMulti                         0x08003441   Thumb Code   448  os_core.o(.text)
    OS_TaskStatStkChk                        0x08003601   Thumb Code    50  os_core.o(.text)
    OS_TaskStat                              0x08003633   Thumb Code    82  os_core.o(.text)
    OS_TaskIdle                              0x08003685   Thumb Code    22  os_core.o(.text)
    OS_MemClr                                0x0800369b   Thumb Code    18  os_core.o(.text)
    OSInit                                   0x080036ad   Thumb Code   300  os_core.o(.text)
    OSIntEnter                               0x080037d9   Thumb Code    20  os_core.o(.text)
    OSIntExit                                0x080037ed   Thumb Code    84  os_core.o(.text)
    OSSchedLock                              0x08003841   Thumb Code    38  os_core.o(.text)
    OSSchedUnlock                            0x08003867   Thumb Code    52  os_core.o(.text)
    OSStart                                  0x0800389b   Thumb Code    40  os_core.o(.text)
    OSStatInit                               0x080038c3   Thumb Code    48  os_core.o(.text)
    OSTimeTick                               0x080038f3   Thumb Code   164  os_core.o(.text)
    OSVersion                                0x08003997   Thumb Code     6  os_core.o(.text)
    OS_Dummy                                 0x0800399d   Thumb Code     2  os_core.o(.text)
    OS_EventTaskRemove                       0x0800399f   Thumb Code    32  os_core.o(.text)
    OS_EventTaskRdy                          0x080039bf   Thumb Code   114  os_core.o(.text)
    OS_EventTaskWait                         0x08003a31   Thumb Code    72  os_core.o(.text)
    OS_EventWaitListInit                     0x08003a79   Thumb Code    22  os_core.o(.text)
    OS_MemCopy                               0x08003a8f   Thumb Code    20  os_core.o(.text)
    OS_TCBInit                               0x08003aa3   Thumb Code   294  os_core.o(.text)
    OSFlagAccept                             0x08003bed   Thumb Code   154  os_flag.o(.text)
    OSFlagCreate                             0x08003c87   Thumb Code    68  os_flag.o(.text)
    OS_FlagUnlink                            0x08003ccb   Thumb Code    32  os_flag.o(.text)
    OSFlagDel                                0x08003d3b   Thumb Code   178  os_flag.o(.text)
    OSFlagNameGet                            0x08003ded   Thumb Code    72  os_flag.o(.text)
    OSFlagNameSet                            0x08003e35   Thumb Code    50  os_flag.o(.text)
    OSFlagPend                               0x08003ebf   Thumb Code   358  os_flag.o(.text)
    OSFlagPendGetFlagsRdy                    0x08004025   Thumb Code    20  os_flag.o(.text)
    OSFlagPost                               0x08004039   Thumb Code   210  os_flag.o(.text)
    OSFlagQuery                              0x0800410b   Thumb Code    38  os_flag.o(.text)
    OS_FlagInit                              0x08004131   Thumb Code    60  os_flag.o(.text)
    OSQAccept                                0x08004175   Thumb Code    78  os_q.o(.text)
    OSQCreate                                0x080041c3   Thumb Code   114  os_q.o(.text)
    OSQDel                                   0x08004235   Thumb Code   220  os_q.o(.text)
    OSQFlush                                 0x08004311   Thumb Code    28  os_q.o(.text)
    OSQPend                                  0x0800432d   Thumb Code   206  os_q.o(.text)
    OSQPendAbort                             0x080043fb   Thumb Code   108  os_q.o(.text)
    OSQPost                                  0x08004467   Thumb Code   106  os_q.o(.text)
    OSQPostFront                             0x080044d1   Thumb Code   104  os_q.o(.text)
    OSQPostOpt                               0x08004539   Thumb Code   186  os_q.o(.text)
    OSQQuery                                 0x080045f3   Thumb Code    84  os_q.o(.text)
    OS_QInit                                 0x08004647   Thumb Code    46  os_q.o(.text)
    OSSemAccept                              0x0800467d   Thumb Code    34  os_sem.o(.text)
    OSSemCreate                              0x0800469f   Thumb Code    58  os_sem.o(.text)
    OSSemDel                                 0x080046d9   Thumb Code   190  os_sem.o(.text)
    OSSemPend                                0x08004797   Thumb Code   172  os_sem.o(.text)
    OSSemPendAbort                           0x08004843   Thumb Code   110  os_sem.o(.text)
    OSSemPost                                0x080048b1   Thumb Code    82  os_sem.o(.text)
    OSSemQuery                               0x08004903   Thumb Code    66  os_sem.o(.text)
    OSSemSet                                 0x08004945   Thumb Code    52  os_sem.o(.text)
    OSTaskChangePrio                         0x0800498d   Thumb Code   296  os_task.o(.text)
    OSTaskCreate                             0x08004ab5   Thumb Code   124  os_task.o(.text)
    OS_TaskStkClr                            0x08004b31   Thumb Code    22  os_task.o(.text)
    OSTaskCreateExt                          0x08004b47   Thumb Code   154  os_task.o(.text)
    OSTaskDel                                0x08004be1   Thumb Code   290  os_task.o(.text)
    OSTaskDelReq                             0x08004d03   Thumb Code    82  os_task.o(.text)
    OSTaskNameGet                            0x08004d55   Thumb Code   138  os_task.o(.text)
    OSTaskNameSet                            0x08004ddf   Thumb Code    70  os_task.o(.text)
    OSTaskResume                             0x08004e25   Thumb Code   124  os_task.o(.text)
    OSTaskStkChk                             0x08004ea1   Thumb Code    98  os_task.o(.text)
    OSTaskSuspend                            0x08004f03   Thumb Code   130  os_task.o(.text)
    OSTaskQuery                              0x08004f85   Thumb Code    74  os_task.o(.text)
    OSTaskRegGet                             0x08004fcf   Thumb Code    50  os_task.o(.text)
    OSTaskRegSet                             0x08005001   Thumb Code    52  os_task.o(.text)
    OS_TaskReturn                            0x08005035   Thumb Code    18  os_task.o(.text)
    OSTimeDly                                0x08005061   Thumb Code    74  os_time.o(.text)
    OSTimeDlyHMSM                            0x080050ab   Thumb Code    62  os_time.o(.text)
    OSTimeDlyResume                          0x080050e9   Thumb Code   138  os_time.o(.text)
    OSTimeGet                                0x08005173   Thumb Code    18  os_time.o(.text)
    OSTimeSet                                0x08005185   Thumb Code    20  os_time.o(.text)
    OSDumpTmr                                0x080051b1   Thumb Code   110  os_tmr.o(.text)
    OSTmrCreate                              0x0800521f   Thumb Code   122  os_tmr.o(.text)
    OSTmrDel                                 0x08005305   Thumb Code    94  os_tmr.o(.text)
    OSTmrNameGet                             0x08005363   Thumb Code    94  os_tmr.o(.text)
    OSTmrRemainGet                           0x080053c1   Thumb Code   124  os_tmr.o(.text)
    OSTmrStateGet                            0x0800543d   Thumb Code    68  os_tmr.o(.text)
    OSTmrStart                               0x080054c1   Thumb Code    96  os_tmr.o(.text)
    OSTmrStop                                0x08005521   Thumb Code   222  os_tmr.o(.text)
    OSTmrSignal                              0x080055ff   Thumb Code     8  os_tmr.o(.text)
    OSTmr_Init                               0x08005673   Thumb Code   184  os_tmr.o(.text)
    OSInitHookBegin                          0x0800578d   Thumb Code     8  os_cpu_c.o(.text)
    OSInitHookEnd                            0x08005795   Thumb Code     2  os_cpu_c.o(.text)
    OSTaskCreateHook                         0x08005797   Thumb Code     4  os_cpu_c.o(.text)
    OSTaskDelHook                            0x0800579b   Thumb Code     4  os_cpu_c.o(.text)
    App_TaskIdleHook                         0x0800579f   Thumb Code     2  os_cpu_c.o(.text)
    OSTaskIdleHook                           0x080057a1   Thumb Code     2  os_cpu_c.o(.text)
    OSTaskReturnHook                         0x080057a3   Thumb Code     4  os_cpu_c.o(.text)
    OSTaskStatHook                           0x080057a7   Thumb Code     4  os_cpu_c.o(.text)
    OSTaskStkInit                            0x080057ab   Thumb Code   102  os_cpu_c.o(.text)
    OSTaskSwHook                             0x08005811   Thumb Code     4  os_cpu_c.o(.text)
    OSTCBInitHook                            0x08005815   Thumb Code     4  os_cpu_c.o(.text)
    OSTimeTickHook                           0x08005819   Thumb Code    34  os_cpu_c.o(.text)
    SysTick_Handler                          0x0800583b   Thumb Code    52  os_cpu_c.o(.text)
    OS_CPU_SysTickInit                       0x0800586f   Thumb Code    32  os_cpu_c.o(.text)
    OS_CPU_SR_Save                           0x0800589d   Thumb Code     0  os_cpu_a.o(.text)
    OS_CPU_SR_Restore                        0x080058a5   Thumb Code     0  os_cpu_a.o(.text)
    OSStartHighRdy                           0x080058ab   Thumb Code     0  os_cpu_a.o(.text)
    OSCtxSw                                  0x080058cb   Thumb Code     0  os_cpu_a.o(.text)
    OSIntCtxSw                               0x080058d5   Thumb Code     0  os_cpu_a.o(.text)
    PendSV_Handler                           0x080058df   Thumb Code     0  os_cpu_a.o(.text)
    atomic_test_set                          0x08005941   Thumb Code    32  atomic.o(.text)
    atomic_set                               0x08005961   Thumb Code    20  atomic.o(.text)
    atomic_read                              0x08005975   Thumb Code    18  atomic.o(.text)
    atomic_add                               0x08005987   Thumb Code    24  atomic.o(.text)
    atomic_sub                               0x0800599f   Thumb Code    24  atomic.o(.text)
    atomic_add_return                        0x080059b7   Thumb Code    24  atomic.o(.text)
    atomic_sub_return                        0x080059cf   Thumb Code    24  atomic.o(.text)
    mutex_init                               0x080059e9   Thumb Code    26  mutex.o(.text)
    mutex_lock                               0x08005a03   Thumb Code    72  mutex.o(.text)
    mutex_unlock                             0x08005a4b   Thumb Code    62  mutex.o(.text)
    mutex_destory                            0x08005a89   Thumb Code    68  mutex.o(.text)
    thread_create                            0x08005b21   Thumb Code   112  task.o(.text)
    thread_exit                              0x08005b91   Thumb Code     6  task.o(.text)
    thread_myself                            0x08005b97   Thumb Code     8  task.o(.text)
    initList                                 0x08005b9f   Thumb Code    10  task.o(.text)
    insertTailList                           0x08005ba9   Thumb Code    96  task.o(.text)
    removeHeadList                           0x08005c09   Thumb Code    98  task.o(.text)
    getListSize                              0x08005c6b   Thumb Code     4  task.o(.text)
    delEntryList                             0x08005c6f   Thumb Code    58  task.o(.text)
    create_workqueue                         0x08005d57   Thumb Code    94  task.o(.text)
    destroy_workqueue                        0x08005db5   Thumb Code    30  task.o(.text)
    init_timer_tasklet                       0x08005dd3   Thumb Code    30  task.o(.text)
    init_work                                0x08005df1   Thumb Code     6  task.o(.text)
    schedule_work                            0x08005df7   Thumb Code    22  task.o(.text)
    schedule_timer_tasklet                   0x08005e0d   Thumb Code    20  task.o(.text)
    timer_tasklet_callback                   0x08005e21   Thumb Code     2  task.o(.text)
    init_work_thread                         0x08005e23   Thumb Code     2  task.o(.text)
    os_time_get                              0x08005ec1   Thumb Code    14  timer.o(.text)
    timer_setup                              0x08005ecf   Thumb Code   172  timer.o(.text)
    timer_pending                            0x08005f7b   Thumb Code    66  timer.o(.text)
    mod_timer                                0x08005fbd   Thumb Code   106  timer.o(.text)
    add_timer                                0x08006027   Thumb Code    78  timer.o(.text)
    del_timer                                0x08006075   Thumb Code    86  timer.o(.text)
    timer_free                               0x080060cb   Thumb Code    74  timer.o(.text)
    sleep                                    0x08006115   Thumb Code    54  timer.o(.text)
    init_event                               0x080061fd   Thumb Code    60  wait.o(.text)
    wait_event                               0x08006239   Thumb Code    76  wait.o(.text)
    wait_event_timeout                       0x08006285   Thumb Code    88  wait.o(.text)
    wake_up                                  0x080062dd   Thumb Code    62  wait.o(.text)
    del_event                                0x0800631b   Thumb Code    12  wait.o(.text)
    clear_wait_event                         0x08006327   Thumb Code   106  wait.o(.text)
    mem_slide_check                          0x08006431   Thumb Code  1644  memory.o(.text)
    sys_meminit                              0x08006b43   Thumb Code    82  memory.o(.text)
    mem_free                                 0x08006b95   Thumb Code   238  memory.o(.text)
    get_mem_size                             0x08006c83   Thumb Code    30  memory.o(.text)
    mem_check                                0x08006ca1   Thumb Code   120  memory.o(.text)
    mem_trim                                 0x08006d19   Thumb Code   474  memory.o(.text)
    mem_malloc_ex                            0x08006ef3   Thumb Code   576  memory.o(.text)
    mem_calloc_ex                            0x08007133   Thumb Code    26  memory.o(.text)
    mem_get_size                             0x0800714d   Thumb Code     6  memory.o(.text)
    mem_get_free                             0x08007153   Thumb Code    10  memory.o(.text)
    netconn_new_with_proto_and_callback      0x080071a5   Thumb Code   194  api_lib.o(.text)
    netconn_delete                           0x08007267   Thumb Code    32  api_lib.o(.text)
    netconn_getaddr                          0x08007287   Thumb Code   126  api_lib.o(.text)
    netconn_bind                             0x08007305   Thumb Code    86  api_lib.o(.text)
    netconn_connect                          0x0800735b   Thumb Code    84  api_lib.o(.text)
    netconn_disconnect                       0x080073af   Thumb Code    78  api_lib.o(.text)
    netconn_listen_with_backlog              0x080073fd   Thumb Code    82  api_lib.o(.text)
    netconn_accept                           0x0800744f   Thumb Code   194  api_lib.o(.text)
    netconn_recv_tcp_pbuf                    0x080078c3   Thumb Code    54  api_lib.o(.text)
    netconn_recv                             0x080078f9   Thumb Code   264  api_lib.o(.text)
    netconn_recved                           0x08007a01   Thumb Code    40  api_lib.o(.text)
    netconn_send                             0x08007a29   Thumb Code    86  api_lib.o(.text)
    netconn_sendto                           0x08007a7f   Thumb Code    18  api_lib.o(.text)
    netconn_write_partly                     0x08007a91   Thumb Code   194  api_lib.o(.text)
    netconn_close                            0x08007bab   Thumb Code     4  api_lib.o(.text)
    netconn_shutdown                         0x08007baf   Thumb Code    12  api_lib.o(.text)
    netconn_join_leave_group                 0x08007bbb   Thumb Code    92  api_lib.o(.text)
    netconn_gethostbyname                    0x08007c17   Thumb Code   388  api_lib.o(.text)
    netconn_free                             0x08008773   Thumb Code   150  api_msg.o(.text)
    netconn_alloc                            0x08008809   Thumb Code   444  api_msg.o(.text)
    do_newconn                               0x08008aff   Thumb Code    32  api_msg.o(.text)
    do_delconn                               0x08008be3   Thumb Code   260  api_msg.o(.text)
    do_bind                                  0x08008ce7   Thumb Code    82  api_msg.o(.text)
    do_connect                               0x08008df1   Thumb Code   464  api_msg.o(.text)
    do_disconnect                            0x08008fc1   Thumb Code    42  api_msg.o(.text)
    do_listen                                0x08008feb   Thumb Code   178  api_msg.o(.text)
    do_send                                  0x0800909d   Thumb Code   128  api_msg.o(.text)
    do_recv                                  0x0800911d   Thumb Code   110  api_msg.o(.text)
    do_write                                 0x0800918b   Thumb Code   146  api_msg.o(.text)
    do_getaddr                               0x0800921d   Thumb Code   140  api_msg.o(.text)
    do_close                                 0x080092a9   Thumb Code   162  api_msg.o(.text)
    do_join_leave_group                      0x0800934b   Thumb Code   158  api_msg.o(.text)
    do_gethostbyname                         0x0800943b   Thumb Code    36  api_msg.o(.text)
    netbuf_new                               0x08009491   Thumb Code    28  netbuf.o(.text)
    netbuf_delete                            0x080094ad   Thumb Code    32  netbuf.o(.text)
    netbuf_alloc                             0x080094cd   Thumb Code    98  netbuf.o(.text)
    netbuf_free                              0x0800952f   Thumb Code    52  netbuf.o(.text)
    netbuf_ref                               0x08009563   Thumb Code    90  netbuf.o(.text)
    netbuf_chain                             0x080095bd   Thumb Code    80  netbuf.o(.text)
    netbuf_data                              0x0800960d   Thumb Code   102  netbuf.o(.text)
    netbuf_next                              0x08009673   Thumb Code    60  netbuf.o(.text)
    netbuf_first                             0x080096af   Thumb Code    34  netbuf.o(.text)
    lwip_socket_init                         0x08009829   Thumb Code     2  sockets.o(.text)
    get_socket                               0x0800982b   Thumb Code    30  sockets.o(.text)
    lwip_accept                              0x080099f7   Thumb Code   430  sockets.o(.text)
    lwip_bind                                0x08009ba5   Thumb Code   368  sockets.o(.text)
    lwip_close                               0x08009d15   Thumb Code   120  sockets.o(.text)
    lwip_connect                             0x08009d8d   Thumb Code   138  sockets.o(.text)
    lwip_listen                              0x08009e17   Thumb Code   102  sockets.o(.text)
    lwip_recvfrom                            0x08009e7d   Thumb Code   504  sockets.o(.text)
    lwip_read                                0x0800a075   Thumb Code    18  sockets.o(.text)
    lwip_recv                                0x0800a087   Thumb Code    22  sockets.o(.text)
    lwip_sendto                              0x0800a09d   Thumb Code   440  sockets.o(.text)
    lwip_send                                0x0800a255   Thumb Code   122  sockets.o(.text)
    lwip_socket                              0x0800a2cf   Thumb Code   120  sockets.o(.text)
    lwip_write                               0x0800a347   Thumb Code     4  sockets.o(.text)
    lwip_select                              0x0800a46b   Thumb Code   878  sockets.o(.text)
    lwip_shutdown                            0x0800a7d9   Thumb Code   126  sockets.o(.text)
    lwip_getpeername                         0x0800a8c3   Thumb Code     4  sockets.o(.text)
    lwip_getsockname                         0x0800a8c7   Thumb Code     4  sockets.o(.text)
    lwip_getsockopt                          0x0800aa9d   Thumb Code   438  sockets.o(.text)
    lwip_setsockopt                          0x0800ae15   Thumb Code   272  sockets.o(.text)
    lwip_ioctl                               0x0800af25   Thumb Code    74  sockets.o(.text)
    lwip_fcntl                               0x0800af6f   Thumb Code    70  sockets.o(.text)
    tcpip_input                              0x0800b079   Thumb Code    76  tcpip.o(.text)
    tcpip_callback_with_block                0x0800b0c5   Thumb Code   102  tcpip.o(.text)
    tcpip_timeout                            0x0800b12b   Thumb Code    70  tcpip.o(.text)
    tcpip_untimeout                          0x0800b171   Thumb Code    66  tcpip.o(.text)
    tcpip_apimsg                             0x0800b1b3   Thumb Code    60  tcpip.o(.text)
    tcpip_callbackmsg_new                    0x0800b1ef   Thumb Code    32  tcpip.o(.text)
    tcpip_callbackmsg_delete                 0x0800b20f   Thumb Code     4  tcpip.o(.text)
    tcpip_trycallback                        0x0800b213   Thumb Code    34  tcpip.o(.text)
    tcpip_init                               0x0800b235   Thumb Code    72  tcpip.o(.text)
    pbuf_free_callback                       0x0800b281   Thumb Code     8  tcpip.o(.text)
    mem_free_callback                        0x0800b289   Thumb Code     8  tcpip.o(.text)
    sys_init                                 0x0800b345   Thumb Code    14  sys_arch.o(.text)
    sys_jiffies                              0x0800b353   Thumb Code     6  sys_arch.o(.text)
    sys_now                                  0x0800b359   Thumb Code    12  sys_arch.o(.text)
    sys_sem_new                              0x0800b365   Thumb Code    68  sys_arch.o(.text)
    sys_sem_valid                            0x0800b3a9   Thumb Code    10  sys_arch.o(.text)
    sys_sem_set_invalid                      0x0800b3b3   Thumb Code     6  sys_arch.o(.text)
    sys_sem_free                             0x0800b3b9   Thumb Code    14  sys_arch.o(.text)
    sys_sem_signal                           0x0800b3c7   Thumb Code    64  sys_arch.o(.text)
    sys_arch_sem_wait                        0x0800b407   Thumb Code   154  sys_arch.o(.text)
    sys_mbox_new                             0x0800b4a1   Thumb Code   174  sys_arch.o(.text)
    sys_mbox_valid                           0x0800b54f   Thumb Code    10  sys_arch.o(.text)
    sys_mbox_set_invalid                     0x0800b559   Thumb Code     6  sys_arch.o(.text)
    sys_mbox_post                            0x0800b55f   Thumb Code   106  sys_arch.o(.text)
    sys_mbox_trypost                         0x0800b5c9   Thumb Code    30  sys_arch.o(.text)
    sys_arch_mbox_fetch                      0x0800b5e7   Thumb Code   174  sys_arch.o(.text)
    sys_arch_mbox_tryfetch                   0x0800b695   Thumb Code    48  sys_arch.o(.text)
    sys_mbox_free                            0x0800b6c5   Thumb Code   334  sys_arch.o(.text)
    sys_thread_new                           0x0800b813   Thumb Code    28  sys_arch.o(.text)
    dhcp_renew                               0x0800c019   Thumb Code   128  dhcp.o(.text)
    dhcp_coarse_tmr                          0x0800c117   Thumb Code    90  dhcp.o(.text)
    dhcp_release                             0x0800c205   Thumb Code   236  dhcp.o(.text)
    dhcp_fine_tmr                            0x0800c3eb   Thumb Code    46  dhcp.o(.text)
    dhcp_set_struct                          0x0800c419   Thumb Code   120  dhcp.o(.text)
    dhcp_cleanup                             0x0800c491   Thumb Code    56  dhcp.o(.text)
    dhcp_stop                                0x0800c4c9   Thumb Code   116  dhcp.o(.text)
    dhcp_start                               0x0800cac7   Thumb Code   390  dhcp.o(.text)
    dhcp_inform                              0x0800cc4d   Thumb Code   178  dhcp.o(.text)
    dhcp_network_changed                     0x0800ccff   Thumb Code    66  dhcp.o(.text)
    dhcp_arp_reply                           0x0800cd41   Thumb Code    60  dhcp.o(.text)
    dns_setserver                            0x0800cf05   Thumb Code    30  dns.o(.text)
    dns_init                                 0x0800d083   Thumb Code    84  dns.o(.text)
    dns_getserver                            0x0800d0d7   Thumb Code    14  dns.o(.text)
    dns_tmr                                  0x0800d2bf   Thumb Code    28  dns.o(.text)
    dns_gethostbyname                        0x0800d2db   Thumb Code   402  dns.o(.text)
    lwip_init                                0x0800d541   Thumb Code    42  init.o(.text)
    netif_init                               0x0800d56d   Thumb Code     2  netif.o(.text)
    netif_set_gw                             0x0800d56f   Thumb Code     8  netif.o(.text)
    netif_set_netmask                        0x0800d577   Thumb Code     8  netif.o(.text)
    netif_set_ipaddr                         0x0800d57f   Thumb Code    92  netif.o(.text)
    netif_set_addr                           0x0800d5db   Thumb Code    30  netif.o(.text)
    netif_add                                0x0800d5f9   Thumb Code   120  netif.o(.text)
    netif_set_default                        0x0800d671   Thumb Code     6  netif.o(.text)
    netif_set_down                           0x0800d677   Thumb Code    26  netif.o(.text)
    netif_remove                             0x0800d691   Thumb Code    82  netif.o(.text)
    netif_find                               0x0800d6e3   Thumb Code    58  netif.o(.text)
    netif_set_up                             0x0800d71d   Thumb Code    56  netif.o(.text)
    netif_set_link_up                        0x0800d755   Thumb Code    70  netif.o(.text)
    netif_set_link_down                      0x0800d79b   Thumb Code    18  netif.o(.text)
    pbuf_free                                0x0800d87d   Thumb Code   198  pbuf.o(.text)
    pbuf_alloc                               0x0800d943   Thumb Code   600  pbuf.o(.text)
    pbuf_alloced_custom                      0x0800db9b   Thumb Code   654  pbuf.o(.text)
    pbuf_realloc                             0x0800de29   Thumb Code   274  pbuf.o(.text)
    pbuf_header                              0x0800df3b   Thumb Code   186  pbuf.o(.text)
    pbuf_clen                                0x0800dff5   Thumb Code    18  pbuf.o(.text)
    pbuf_ref                                 0x0800e007   Thumb Code    26  pbuf.o(.text)
    pbuf_cat                                 0x0800e021   Thumb Code   130  pbuf.o(.text)
    pbuf_chain                               0x0800e0a3   Thumb Code    16  pbuf.o(.text)
    pbuf_dechain                             0x0800e0b3   Thumb Code   120  pbuf.o(.text)
    pbuf_copy                                0x0800e12b   Thumb Code   806  pbuf.o(.text)
    pbuf_copy_partial                        0x0800e451   Thumb Code   162  pbuf.o(.text)
    pbuf_take                                0x0800e4f3   Thumb Code   210  pbuf.o(.text)
    pbuf_coalesce                            0x0800e5c5   Thumb Code    80  pbuf.o(.text)
    pbuf_get_at                              0x0800e615   Thumb Code    24  pbuf.o(.text)
    pbuf_memcmp                              0x0800e62d   Thumb Code    68  pbuf.o(.text)
    pbuf_memfind                             0x0800e671   Thumb Code    56  pbuf.o(.text)
    pbuf_strstr                              0x0800e6a9   Thumb Code    50  pbuf.o(.text)
    raw_input                                0x0800e7c9   Thumb Code   100  raw.o(.text)
    raw_bind                                 0x0800e82d   Thumb Code    10  raw.o(.text)
    raw_connect                              0x0800e837   Thumb Code    10  raw.o(.text)
    raw_recv                                 0x0800e841   Thumb Code     6  raw.o(.text)
    raw_sendto                               0x0800e847   Thumb Code   166  raw.o(.text)
    raw_send                                 0x0800e8ed   Thumb Code     4  raw.o(.text)
    raw_remove                               0x0800e8f1   Thumb Code    36  raw.o(.text)
    raw_new                                  0x0800e915   Thumb Code    42  raw.o(.text)
    stats_init                               0x0800e9c5   Thumb Code     2  stats.o(.text)
    tcp_init                                 0x0800e9c9   Thumb Code     2  tcp.o(.text)
    tcp_seg_free                             0x0800e9cb   Thumb Code    26  tcp.o(.text)
    tcp_segs_free                            0x0800e9e5   Thumb Code    18  tcp.o(.text)
    tcp_pcb_purge                            0x0800e9f7   Thumb Code   170  tcp.o(.text)
    tcp_slowtmr                              0x0800eaa1   Thumb Code  1358  tcp.o(.text)
    tcp_pcb_remove                           0x0800efef   Thumb Code   218  tcp.o(.text)
    tcp_close                                0x0800f203   Thumb Code    18  tcp.o(.text)
    tcp_update_rcv_ann_wnd                   0x0800f215   Thumb Code    90  tcp.o(.text)
    tcp_recved                               0x0800f26f   Thumb Code   132  tcp.o(.text)
    tcp_recv_null                            0x0800f2f3   Thumb Code    34  tcp.o(.text)
    tcp_process_refused_data                 0x0800f315   Thumb Code   102  tcp.o(.text)
    tcp_fasttmr                              0x0800f37b   Thumb Code   384  tcp.o(.text)
    tcp_tmr                                  0x0800f4fb   Thumb Code    28  tcp.o(.text)
    tcp_shutdown                             0x0800f517   Thumb Code    76  tcp.o(.text)
    tcp_abandon                              0x0800f563   Thumb Code   178  tcp.o(.text)
    tcp_abort                                0x0800f615   Thumb Code     4  tcp.o(.text)
    tcp_bind                                 0x0800f66b   Thumb Code   146  tcp.o(.text)
    tcp_listen_with_backlog                  0x0800f703   Thumb Code   186  tcp.o(.text)
    tcp_eff_send_mss                         0x0800f7bd   Thumb Code    30  tcp.o(.text)
    tcp_next_iss                             0x0800f7db   Thumb Code    12  tcp.o(.text)
    tcp_connect                              0x0800f7e7   Thumb Code   466  tcp.o(.text)
    tcp_setprio                              0x0800f9b9   Thumb Code     4  tcp.o(.text)
    tcp_seg_copy                             0x0800f9bd   Thumb Code    36  tcp.o(.text)
    tcp_alloc                                0x0800f9e1   Thumb Code   282  tcp.o(.text)
    tcp_new                                  0x0800fafb   Thumb Code     4  tcp.o(.text)
    tcp_arg                                  0x0800faff   Thumb Code     4  tcp.o(.text)
    tcp_recv                                 0x0800fb03   Thumb Code    46  tcp.o(.text)
    tcp_sent                                 0x0800fb31   Thumb Code    44  tcp.o(.text)
    tcp_err                                  0x0800fb5d   Thumb Code    46  tcp.o(.text)
    tcp_accept                               0x0800fb8b   Thumb Code     4  tcp.o(.text)
    tcp_poll                                 0x0800fb8f   Thumb Code    50  tcp.o(.text)
    tcp_debug_state_str                      0x0800fbc1   Thumb Code    10  tcp.o(.text)
    tcp_input                                0x08010d4d   Thumb Code  1378  tcp_in.o(.text)
    tcp_enqueue_flags                        0x080114b9   Thumb Code   394  tcp_out.o(.text)
    tcp_send_fin                             0x08011643   Thumb Code    50  tcp_out.o(.text)
    tcp_write                                0x08011931   Thumb Code  1442  tcp_out.o(.text)
    tcp_send_empty_ack                       0x08011ed3   Thumb Code    86  tcp_out.o(.text)
    tcp_output                               0x08011ff9   Thumb Code   428  tcp_out.o(.text)
    tcp_rst                                  0x080121a5   Thumb Code   168  tcp_out.o(.text)
    tcp_rexmit_rto                           0x0801224d   Thumb Code    44  tcp_out.o(.text)
    tcp_rexmit                               0x08012279   Thumb Code    70  tcp_out.o(.text)
    tcp_rexmit_fast                          0x080122bf   Thumb Code    82  tcp_out.o(.text)
    tcp_keepalive                            0x08012311   Thumb Code    82  tcp_out.o(.text)
    tcp_zero_window_probe                    0x08012363   Thumb Code   248  tcp_out.o(.text)
    sys_timeout                              0x08012461   Thumb Code   112  timers.o(.text)
    tcp_timer_needed                         0x080124f7   Thumb Code    34  timers.o(.text)
    sys_timeouts_init                        0x0801258f   Thumb Code    72  timers.o(.text)
    sys_untimeout                            0x080125d7   Thumb Code    66  timers.o(.text)
    sys_timeouts_mbox_fetch                  0x08012619   Thumb Code   102  timers.o(.text)
    udp_init                                 0x0801273d   Thumb Code     2  udp.o(.text)
    udp_input                                0x0801273f   Thumb Code   498  udp.o(.text)
    udp_bind                                 0x08012931   Thumb Code   186  udp.o(.text)
    udp_sendto_if                            0x080129eb   Thumb Code   278  udp.o(.text)
    udp_sendto                               0x08012b01   Thumb Code   250  udp.o(.text)
    udp_send                                 0x08012bfb   Thumb Code     6  udp.o(.text)
    udp_connect                              0x08012c01   Thumb Code    72  udp.o(.text)
    udp_disconnect                           0x08012c49   Thumb Code    16  udp.o(.text)
    udp_recv                                 0x08012c59   Thumb Code     6  udp.o(.text)
    udp_remove                               0x08012c5f   Thumb Code    36  udp.o(.text)
    udp_new                                  0x08012c83   Thumb Code    30  udp.o(.text)
    icmp_input                               0x08012cb1   Thumb Code   506  icmp.o(.text)
    icmp_dest_unreach                        0x08012f3d   Thumb Code     6  icmp.o(.text)
    icmp_time_exceeded                       0x08012f43   Thumb Code     6  icmp.o(.text)
    igmp_init                                0x080130bd   Thumb Code    14  igmp.o(.text)
    igmp_lookfor_group                       0x080130cb   Thumb Code    32  igmp.o(.text)
    igmp_start                               0x08013129   Thumb Code    44  igmp.o(.text)
    igmp_stop                                0x08013155   Thumb Code    78  igmp.o(.text)
    igmp_report_groups                       0x080131a3   Thumb Code    34  igmp.o(.text)
    igmp_input                               0x080131c5   Thumb Code   312  igmp.o(.text)
    igmp_joingroup                           0x080133d1   Thumb Code   196  igmp.o(.text)
    igmp_leavegroup                          0x08013495   Thumb Code   508  igmp.o(.text)
    igmp_tmr                                 0x08013691   Thumb Code    60  igmp.o(.text)
    inet_chksum_pseudo                       0x080137df   Thumb Code   128  inet_chksum.o(.text)
    inet_chksum_pseudo_partial               0x0801385f   Thumb Code   186  inet_chksum.o(.text)
    inet_chksum                              0x08013919   Thumb Code    12  inet_chksum.o(.text)
    inet_chksum_pbuf                         0x08013925   Thumb Code    72  inet_chksum.o(.text)
    ip_route                                 0x080139cd   Thumb Code    62  ip.o(.text)
    ip_input                                 0x08013a0b   Thumb Code   548  ip.o(.text)
    ip_output_if_opt                         0x08013c2f   Thumb Code   380  ip.o(.text)
    ip_output_if                             0x08013dab   Thumb Code   198  ip.o(.text)
    ip_output                                0x08013e71   Thumb Code   100  ip.o(.text)
    ip4_addr_isbroadcast                     0x08013edd   Thumb Code    46  ip_addr.o(.text)
    ip4_addr_netmask_valid                   0x08013f0b   Thumb Code    34  ip_addr.o(.text)
    ipaddr_aton                              0x08013f2d   Thumb Code   270  ip_addr.o(.text)
    ipaddr_addr                              0x0801403b   Thumb Code    20  ip_addr.o(.text)
    ipaddr_ntoa_r                            0x0801404f   Thumb Code   120  ip_addr.o(.text)
    ipaddr_ntoa                              0x080140c7   Thumb Code     6  ip_addr.o(.text)
    ip_reass_tmr                             0x0801427d   Thumb Code    40  ip_frag.o(.text)
    ip_reass                                 0x080144bf   Thumb Code   822  ip_frag.o(.text)
    ip_frag                                  0x08014873   Thumb Code   406  ip_frag.o(.text)
    mac_data_xmit                            0x08014ac9   Thumb Code   114  ethernetif.o(.text)
    ethernetif_input                         0x08014be1   Thumb Code   136  ethernetif.o(.text)
    ethernetif_init                          0x08014c69   Thumb Code    92  ethernetif.o(.text)
    etharp_tmr                               0x08014e2d   Thumb Code    66  etharp.o(.text)
    etharp_cleanup_netif                     0x080150d3   Thumb Code    42  etharp.o(.text)
    etharp_find_addr                         0x080150fd   Thumb Code    86  etharp.o(.text)
    etharp_request                           0x08015511   Thumb Code    38  etharp.o(.text)
    etharp_query                             0x08015597   Thumb Code   376  etharp.o(.text)
    etharp_output                            0x0801570f   Thumb Code   576  etharp.o(.text)
    ethernet_input                           0x0801594f   Thumb Code   186  etharp.o(.text)
    init_udhcpd                              0x08015a41   Thumb Code   384  dhcpd.o(.text)
    enable_dhcp_server                       0x08015bc1   Thumb Code    74  dhcpd.o(.text)
    disable_dhcp_server                      0x08015c0b   Thumb Code   104  dhcpd.o(.text)
    release_dhcp_packet                      0x08015c73   Thumb Code    20  dhcpd.o(.text)
    handle_dhcp_rcv                          0x08015c87   Thumb Code  1152  dhcpd.o(.text)
    clear_lease                              0x08016145   Thumb Code   108  leases.o(.text)
    oldest_expired_lease                     0x080161b1   Thumb Code    52  leases.o(.text)
    add_lease                                0x080161e5   Thumb Code    48  leases.o(.text)
    lease_expired                            0x08016215   Thumb Code    24  leases.o(.text)
    find_lease_by_chaddr                     0x0801622d   Thumb Code    58  leases.o(.text)
    find_lease_by_yiaddr                     0x08016267   Thumb Code    48  leases.o(.text)
    check_ip                                 0x08016297   Thumb Code   146  leases.o(.text)
    find_address                             0x08016329   Thumb Code    72  leases.o(.text)
    get_option                               0x080163a5   Thumb Code   142  options.o(.text)
    end_option                               0x08016433   Thumb Code    28  options.o(.text)
    add_option_string                        0x0801644f   Thumb Code    54  options.o(.text)
    add_simple_option                        0x08016485   Thumb Code   120  options.o(.text)
    find_option                              0x080164fd   Thumb Code    26  options.o(.text)
    attach_option                            0x08016517   Thumb Code   140  options.o(.text)
    init_header                              0x080165ad   Thumb Code    76  packet.o(.text)
    time                                     0x080165f9   Thumb Code    12  packet.o(.text)
    checksum                                 0x08016605   Thumb Code    38  packet.o(.text)
    udhcp_end_option                         0x0801662b   Thumb Code    26  packet.o(.text)
    raw_packet                               0x08016645   Thumb Code   360  packet.o(.text)
    kernel_packet                            0x080167ad   Thumb Code   172  packet.o(.text)
    sendOffer                                0x08016943   Thumb Code   486  serverpacket.o(.text)
    sendNAK                                  0x08016b29   Thumb Code    56  serverpacket.o(.text)
    sendACK                                  0x08016b61   Thumb Code   220  serverpacket.o(.text)
    send_inform                              0x08016c3d   Thumb Code   156  serverpacket.o(.text)
    woal_ssid_valid                          0x08016d63   Thumb Code     4  moal_main.o(.text)
    woal_alloc_mlan_ioctl_req                0x08016d67   Thumb Code    42  moal_main.o(.text)
    woal_get_mode                            0x08016d91   Thumb Code    82  moal_main.o(.text)
    woal_reassoc_timer_func                  0x08016ee1   Thumb Code    12  moal_main.o(.text)
    woal_remove_interface                    0x080170b5   Thumb Code    94  moal_main.o(.text)
    woal_init_priv                           0x08017113   Thumb Code   260  moal_main.o(.text)
    woal_add_interface                       0x08017217   Thumb Code   440  moal_main.o(.text)
    woal_sdio_reg_dbg                        0x080173cf   Thumb Code   228  moal_main.o(.text)
    woal_moal_debug_info                     0x080174b3   Thumb Code    68  moal_main.o(.text)
    woal_request_fw                          0x080175c1   Thumb Code    16  moal_main.o(.text)
    woal_open                                0x080176c9   Thumb Code    40  moal_main.o(.text)
    woal_close                               0x080176f1   Thumb Code    80  moal_main.o(.text)
    woal_set_mac_address                     0x08017741   Thumb Code    92  moal_main.o(.text)
    woal_mlan_debug_info                     0x0801779d   Thumb Code     2  moal_main.o(.text)
    woal_tx_timeout                          0x0801779f   Thumb Code    22  moal_main.o(.text)
    woal_get_stats                           0x080177b5   Thumb Code    10  moal_main.o(.text)
    woal_select_queue                        0x080177bf   Thumb Code    98  moal_main.o(.text)
    woal_get_tcp_sess                        0x08017821   Thumb Code    50  moal_main.o(.text)
    woal_check_tcp_fin                       0x08017853   Thumb Code    80  moal_main.o(.text)
    woal_process_tcp_ack                     0x080178a3   Thumb Code   372  moal_main.o(.text)
    woal_hard_start_xmit                     0x08017a17   Thumb Code   306  moal_main.o(.text)
    woal_ascii2hex                           0x08017b49   Thumb Code    84  moal_main.o(.text)
    woal_atox                                0x08017b9d   Thumb Code    76  moal_main.o(.text)
    woal_atoi                                0x08017be9   Thumb Code   116  moal_main.o(.text)
    woal_strsep                              0x08017c5d   Thumb Code   102  moal_main.o(.text)
    woal_mac2u8                              0x08017cc3   Thumb Code    34  moal_main.o(.text)
    woal_set_multicast_list                  0x08017ce5   Thumb Code    12  moal_main.o(.text)
    woal_reset_intf                          0x08017cf1   Thumb Code   260  moal_main.o(.text)
    woal_bss_index_to_priv                   0x08017df5   Thumb Code    38  moal_main.o(.text)
    woal_alloc_mlan_buffer                   0x08017e1b   Thumb Code    64  moal_main.o(.text)
    woal_free_mlan_buffer                    0x08017e5b   Thumb Code    42  moal_main.o(.text)
    woal_broadcast_event                     0x08017e85   Thumb Code    62  moal_main.o(.text)
    woal_reassociation_thread                0x08017ec3   Thumb Code   494  moal_main.o(.text)
    woal_send_disconnect_to_system           0x080180b1   Thumb Code   116  moal_main.o(.text)
    woal_main_work_queue                     0x08018125   Thumb Code   134  moal_main.o(.text)
    woal_interrupt                           0x080181ab   Thumb Code     6  moal_main.o(.text)
    woal_add_card                            0x080181b1   Thumb Code   372  moal_main.o(.text)
    woal_remove_card                         0x08018325   Thumb Code   334  moal_main.o(.text)
    woal_switch_drv_mode                     0x08018473   Thumb Code   266  moal_main.o(.text)
    woal_init_module                         0x0801857d   Thumb Code    42  moal_main.o(.text)
    woal_get_wiphy_priv                      0x080185f9   Thumb Code     6  moal_cfg80211.o(.text)
    woal_get_netdev_priv                     0x080185ff   Thumb Code     6  moal_cfg80211.o(.text)
    woal_cfg80211_set_key                    0x08018605   Thumb Code   406  moal_cfg80211.o(.text)
    woal_cfg80211_set_wep_keys               0x0801879b   Thumb Code    98  moal_cfg80211.o(.text)
    woal_cfg80211_mgmt_frame_ie              0x08018aa3   Thumb Code   736  moal_cfg80211.o(.text)
    woal_cfg80211_change_virtual_intf        0x08018d83   Thumb Code   248  moal_cfg80211.o(.text)
    woal_cfg80211_set_wiphy_params           0x08018e7b   Thumb Code   188  moal_cfg80211.o(.text)
    woal_cfg80211_add_key                    0x08018f37   Thumb Code    60  moal_cfg80211.o(.text)
    woal_cfg80211_del_key                    0x08018f73   Thumb Code    54  moal_cfg80211.o(.text)
    woal_cfg80211_set_default_key            0x08018fa9   Thumb Code    50  moal_cfg80211.o(.text)
    woal_cfg80211_set_channel                0x08018fdb   Thumb Code    62  moal_cfg80211.o(.text)
    woal_cfg80211_mgmt_frame_register        0x08019019   Thumb Code    66  moal_cfg80211.o(.text)
    woal_cfg80211_mgmt_tx                    0x0801905b   Thumb Code   334  moal_cfg80211.o(.text)
    woal_parse_ie_tlv                        0x080191a9   Thumb Code    34  moal_cfg80211.o(.text)
    woal_cfg80211_setup_ht_cap               0x080191cb   Thumb Code   198  moal_cfg80211.o(.text)
    woal_request_ioctl                       0x080192b9   Thumb Code   394  moal_ioctl.o(.text)
    woal_request_set_mac_address             0x08019443   Thumb Code   100  moal_ioctl.o(.text)
    woal_request_set_multicast_list          0x080194a7   Thumb Code    70  moal_ioctl.o(.text)
    woal_disconnect                          0x080194ed   Thumb Code    94  moal_ioctl.o(.text)
    woal_bss_start                           0x0801954b   Thumb Code    78  moal_ioctl.o(.text)
    woal_get_bss_info                        0x08019599   Thumb Code    86  moal_ioctl.o(.text)
    woal_set_get_retry                       0x080195ef   Thumb Code   168  moal_ioctl.o(.text)
    woal_set_get_rts                         0x08019697   Thumb Code   248  moal_ioctl.o(.text)
    woal_set_get_frag                        0x0801978f   Thumb Code   182  moal_ioctl.o(.text)
    woal_set_get_gen_ie                      0x08019845   Thumb Code   148  moal_ioctl.o(.text)
    woal_set_get_tx_power                    0x080198d9   Thumb Code    98  moal_ioctl.o(.text)
    woal_set_get_power_mgmt                  0x0801993b   Thumb Code   164  moal_ioctl.o(.text)
    woal_set_region_code                     0x080199df   Thumb Code   118  moal_ioctl.o(.text)
    woal_set_get_data_rate                   0x08019a55   Thumb Code   112  moal_ioctl.o(.text)
    woal_request_get_fw_info                 0x08019ac5   Thumb Code   196  moal_ioctl.o(.text)
    woal_hostcmd_ioctl                       0x08019b89   Thumb Code   180  moal_ioctl.o(.text)
    woal_custom_ie_ioctl                     0x08019c3d   Thumb Code   198  moal_ioctl.o(.text)
    woal_send_host_packet                    0x08019d03   Thumb Code   168  moal_ioctl.o(.text)
    woal_get_bss_type                        0x08019dab   Thumb Code    32  moal_ioctl.o(.text)
    woal_bss_role_cfg                        0x08019dcb   Thumb Code   152  moal_ioctl.o(.text)
    woal_set_get_bss_role                    0x08019e63   Thumb Code   126  moal_ioctl.o(.text)
    woal_set_get_hs_params                   0x08019ee1   Thumb Code   142  moal_ioctl.o(.text)
    woal_cancel_hs                           0x08019f6f   Thumb Code    26  moal_ioctl.o(.text)
    woal_request_soft_reset                  0x08019f89   Thumb Code   108  moal_ioctl.o(.text)
    woal_set_wapi_enable                     0x08019ff5   Thumb Code    70  moal_ioctl.o(.text)
    woal_get_version                         0x0801a03b   Thumb Code    52  moal_ioctl.o(.text)
    woal_reg_rx_mgmt_ind                     0x0801a06f   Thumb Code    98  moal_ioctl.o(.text)
    woal_set_get_tx_bf_cfg                   0x0801a0d1   Thumb Code   104  moal_ioctl.o(.text)
    woal_process_ioctl_resp                  0x0801a139   Thumb Code     2  moal_ioctl.o(.text)
    woal_get_pm_info                         0x0801a13b   Thumb Code    78  moal_ioctl.o(.text)
    woal_get_deep_sleep                      0x0801a189   Thumb Code    76  moal_ioctl.o(.text)
    woal_set_deep_sleep                      0x0801a1d5   Thumb Code    94  moal_ioctl.o(.text)
    woal_cancel_cac_block                    0x0801a233   Thumb Code    64  moal_ioctl.o(.text)
    woal_11h_channel_check_ioctl             0x0801a273   Thumb Code    82  moal_ioctl.o(.text)
    woal_get_signal_info                     0x0801a2c5   Thumb Code    94  moal_ioctl.o(.text)
    woal_get_scan_table                      0x0801a323   Thumb Code    90  moal_ioctl.o(.text)
    woal_request_scan                        0x0801a37d   Thumb Code   228  moal_ioctl.o(.text)
    woal_change_adhoc_chan                   0x0801a461   Thumb Code   196  moal_ioctl.o(.text)
    woal_find_best_network                   0x0801a525   Thumb Code    96  moal_ioctl.o(.text)
    woal_get_auth_mode                       0x0801a585   Thumb Code    78  moal_ioctl.o(.text)
    woal_get_encrypt_mode                    0x0801a5d3   Thumb Code    80  moal_ioctl.o(.text)
    woal_get_wpa_enable                      0x0801a623   Thumb Code    80  moal_ioctl.o(.text)
    woal_set_auth_mode                       0x0801a673   Thumb Code    68  moal_ioctl.o(.text)
    woal_set_encrypt_mode                    0x0801a6b7   Thumb Code    70  moal_ioctl.o(.text)
    woal_set_wpa_enable                      0x0801a6fd   Thumb Code    70  moal_ioctl.o(.text)
    woal_enable_wep_key                      0x0801a743   Thumb Code    74  moal_ioctl.o(.text)
    woal_request_userscan                    0x0801a78d   Thumb Code   132  moal_ioctl.o(.text)
    woal_set_scan_time                       0x0801a811   Thumb Code    88  moal_ioctl.o(.text)
    woal_do_scan                             0x0801a869   Thumb Code    92  moal_ioctl.o(.text)
    woal_cancel_scan                         0x0801a8c5   Thumb Code   140  moal_ioctl.o(.text)
    woal_find_essid                          0x0801a951   Thumb Code    56  moal_ioctl.o(.text)
    woal_request_bgscan                      0x0801a989   Thumb Code    94  moal_ioctl.o(.text)
    woal_get_band                            0x0801a9e7   Thumb Code   104  moal_ioctl.o(.text)
    woal_set_bg_scan                         0x0801aa4f   Thumb Code   232  moal_ioctl.o(.text)
    woal_stop_bg_scan                        0x0801ab37   Thumb Code    46  moal_ioctl.o(.text)
    woal_reconfig_bgscan                     0x0801ab65   Thumb Code    68  moal_ioctl.o(.text)
    woal_set_rssi_low_threshold              0x0801aba9   Thumb Code   118  moal_ioctl.o(.text)
    woal_set_rssi_threshold                  0x0801ac1f   Thumb Code   206  moal_ioctl.o(.text)
    woal_get_powermode                       0x0801aced   Thumb Code    38  moal_ioctl.o(.text)
    woal_set_scan_type                       0x0801ad13   Thumb Code    78  moal_ioctl.o(.text)
    woal_set_powermode                       0x0801ad61   Thumb Code    48  moal_ioctl.o(.text)
    woal_set_combo_scan                      0x0801ad91   Thumb Code   326  moal_ioctl.o(.text)
    woal_set_band                            0x0801aed7   Thumb Code   232  moal_ioctl.o(.text)
    woal_add_rxfilter                        0x0801afbf   Thumb Code    70  moal_ioctl.o(.text)
    woal_remove_rxfilter                     0x0801b005   Thumb Code    70  moal_ioctl.o(.text)
    woal_set_qos_cfg                         0x0801b04b   Thumb Code    76  moal_ioctl.o(.text)
    woal_set_sleeppd                         0x0801b097   Thumb Code    86  moal_ioctl.o(.text)
    woal_set_scan_cfg                        0x0801b0ed   Thumb Code   126  moal_ioctl.o(.text)
    roundup                                  0x0801b249   Thumb Code    12  moal_sdio_mmc.o(.text)
    rounddown                                0x0801b255   Thumb Code    12  moal_sdio_mmc.o(.text)
    sdio_reset                               0x0801b2fd   Thumb Code    54  moal_sdio_mmc.o(.text)
    sdio_readb                               0x0801b333   Thumb Code    46  moal_sdio_mmc.o(.text)
    sdio_writeb                              0x0801b361   Thumb Code    78  moal_sdio_mmc.o(.text)
    sdio_writeb_readb                        0x0801b3af   Thumb Code    36  moal_sdio_mmc.o(.text)
    sdio_readsb                              0x0801b3d3   Thumb Code    16  moal_sdio_mmc.o(.text)
    sdio_writesb                             0x0801b3e3   Thumb Code    18  moal_sdio_mmc.o(.text)
    sdio_f0_readb                            0x0801b3f5   Thumb Code    42  moal_sdio_mmc.o(.text)
    sdio_f0_writeb                           0x0801b41f   Thumb Code    48  moal_sdio_mmc.o(.text)
    sdio_set_block_size                      0x0801b44f   Thumb Code    64  moal_sdio_mmc.o(.text)
    sdio_enable_func                         0x0801b48f   Thumb Code   146  moal_sdio_mmc.o(.text)
    sdio_disable_func                        0x0801b521   Thumb Code   108  moal_sdio_mmc.o(.text)
    sdio_claim_irq                           0x0801b58d   Thumb Code   176  moal_sdio_mmc.o(.text)
    sdio_release_irq                         0x0801b63d   Thumb Code   222  moal_sdio_mmc.o(.text)
    woal_dump_sdio_reg                       0x0801b71b   Thumb Code    86  moal_sdio_mmc.o(.text)
    woal_sdio_update_card_type               0x0801b771   Thumb Code    32  moal_sdio_mmc.o(.text)
    woal_sdio_interrupt                      0x0801b791   Thumb Code    14  moal_sdio_mmc.o(.text)
    woal_sdio_probe                          0x0801b79f   Thumb Code    92  moal_sdio_mmc.o(.text)
    woal_sdio_remove                         0x0801b7fb   Thumb Code     2  moal_sdio_mmc.o(.text)
    woal_write_reg                           0x0801b7fd   Thumb Code    32  moal_sdio_mmc.o(.text)
    woal_read_reg                            0x0801b81d   Thumb Code    30  moal_sdio_mmc.o(.text)
    woal_write_data_sync                     0x0801b83b   Thumb Code    60  moal_sdio_mmc.o(.text)
    woal_read_data_sync                      0x0801b877   Thumb Code    70  moal_sdio_mmc.o(.text)
    woal_bus_register                        0x0801b8bd   Thumb Code     4  moal_sdio_mmc.o(.text)
    woal_bus_unregister                      0x0801b8c1   Thumb Code     2  moal_sdio_mmc.o(.text)
    woal_unregister_dev                      0x0801b8c3   Thumb Code    34  moal_sdio_mmc.o(.text)
    woal_register_dev                        0x0801b8e5   Thumb Code    58  moal_sdio_mmc.o(.text)
    woal_sdio_set_bus_clock                  0x0801b91f   Thumb Code    58  moal_sdio_mmc.o(.text)
    woal_sdio_read_write_cmd52               0x0801b959   Thumb Code   102  moal_sdio_mmc.o(.text)
    moal_malloc                              0x0801ba0b   Thumb Code    36  moal_shim.o(.text)
    moal_mfree                               0x0801ba2f   Thumb Code    32  moal_shim.o(.text)
    moal_memset                              0x0801ba4f   Thumb Code    18  moal_shim.o(.text)
    moal_memcpy                              0x0801ba61   Thumb Code    22  moal_shim.o(.text)
    moal_memmove                             0x0801ba77   Thumb Code    22  moal_shim.o(.text)
    moal_memcmp                              0x0801ba8d   Thumb Code    10  moal_shim.o(.text)
    moal_udelay                              0x0801ba97   Thumb Code    40  moal_shim.o(.text)
    moal_get_system_time                     0x0801babf   Thumb Code    24  moal_shim.o(.text)
    moal_init_timer                          0x0801bad7   Thumb Code    64  moal_shim.o(.text)
    moal_free_timer                          0x0801bb17   Thumb Code    46  moal_shim.o(.text)
    moal_start_timer                         0x0801bb45   Thumb Code    24  moal_shim.o(.text)
    moal_stop_timer                          0x0801bb5d   Thumb Code    20  moal_shim.o(.text)
    moal_init_lock                           0x0801bb71   Thumb Code    64  moal_shim.o(.text)
    moal_free_lock                           0x0801bbb1   Thumb Code    40  moal_shim.o(.text)
    moal_spin_lock                           0x0801bbd9   Thumb Code    88  moal_shim.o(.text)
    moal_spin_unlock                         0x0801bc31   Thumb Code    24  moal_shim.o(.text)
    moal_get_fw_data                         0x0801bc49   Thumb Code    58  moal_shim.o(.text)
    moal_init_fw_complete                    0x0801bc83   Thumb Code    26  moal_shim.o(.text)
    moal_shutdown_fw_complete                0x0801bc9d   Thumb Code    22  moal_shim.o(.text)
    moal_ioctl_complete                      0x0801bcb3   Thumb Code    98  moal_shim.o(.text)
    moal_alloc_mlan_buffer                   0x0801bd15   Thumb Code    22  moal_shim.o(.text)
    moal_free_mlan_buffer                    0x0801bd2b   Thumb Code    18  moal_shim.o(.text)
    moal_send_packet_complete                0x0801bd3d   Thumb Code   146  moal_shim.o(.text)
    moal_write_data_sync                     0x0801bdcf   Thumb Code     4  moal_shim.o(.text)
    moal_read_data_sync                      0x0801bdd3   Thumb Code     4  moal_shim.o(.text)
    moal_write_reg                           0x0801bdd7   Thumb Code     4  moal_shim.o(.text)
    moal_read_reg                            0x0801bddb   Thumb Code     4  moal_shim.o(.text)
    moal_recv_packet                         0x0801bddf   Thumb Code   242  moal_shim.o(.text)
    moal_recv_event                          0x0801bed1   Thumb Code   744  moal_shim.o(.text)
    moal_print                               0x0801c1b9   Thumb Code     2  moal_shim.o(.text)
    moal_print_netintf                       0x0801c1bb   Thumb Code     2  moal_shim.o(.text)
    moal_assert                              0x0801c1bd   Thumb Code    12  moal_shim.o(.text)
    woal_band_cfg_to_ieee_band               0x0801c27b   Thumb Code    20  moal_sta_cfg80211.o(.text)
    woal_set_rf_channel                      0x0801c483   Thumb Code   196  moal_sta_cfg80211.o(.text)
    woal_set_ewpa_mode                       0x0801c547   Thumb Code    88  moal_sta_cfg80211.o(.text)
    woal_set_passphrase                      0x0801c59f   Thumb Code    74  moal_sta_cfg80211.o(.text)
    woal_inform_bss_from_scan_result         0x0801c617   Thumb Code   260  moal_sta_cfg80211.o(.text)
    woal_cfg80211_set_tx_power               0x0801d087   Thumb Code    56  moal_sta_cfg80211.o(.text)
    woal_cfg80211_sta_init_wiphy             0x0801d0dd   Thumb Code   264  moal_sta_cfg80211.o(.text)
    woal_register_sta_cfg80211               0x0801d1e5   Thumb Code   164  moal_sta_cfg80211.o(.text)
    woal_cfg80211_add_beacon                 0x0801d65b   Thumb Code   102  moal_uap_cfg80211.o(.text)
    woal_cfg80211_set_beacon                 0x0801d6c1   Thumb Code   184  moal_uap_cfg80211.o(.text)
    woal_cfg80211_del_beacon                 0x0801d779   Thumb Code   102  moal_uap_cfg80211.o(.text)
    woal_uap_cfg80211_get_station            0x0801d7df   Thumb Code   142  moal_uap_cfg80211.o(.text)
    woal_cfg80211_uap_init_wiphy             0x0801d86d   Thumb Code   170  moal_uap_cfg80211.o(.text)
    woal_register_uap_cfg80211               0x0801d917   Thumb Code   168  moal_uap_cfg80211.o(.text)
    woal_set_get_sys_config                  0x0801dc55   Thumb Code   110  moal_uap.o(.text)
    woal_set_sys_config_invalid_data         0x0801dcc3   Thumb Code   112  moal_uap.o(.text)
    woal_uap_bss_ctrl                        0x0801dee5   Thumb Code   152  moal_uap.o(.text)
    woal_uap_get_bss_param                   0x0801e091   Thumb Code    88  moal_uap.o(.text)
    woal_uap_set_11n_status                  0x0801e0e9   Thumb Code    78  moal_uap.o(.text)
    woal_uap_ap_cfg_parse_data               0x0801e137   Thumb Code   850  moal_uap.o(.text)
    woal_uap_set_ap_cfg                      0x0801e489   Thumb Code   204  moal_uap.o(.text)
    woal_uap_set_multicast_list              0x0801e555   Thumb Code     2  moal_uap.o(.text)
    woal_uap_do_ioctl                        0x0801e557   Thumb Code   254  moal_uap.o(.text)
    woal_uap_get_version                     0x0801e655   Thumb Code    80  moal_uap.o(.text)
    woal_uap_get_stats                       0x0801e6a5   Thumb Code    88  moal_uap.o(.text)
    woal_uap_do_priv_ioctl                   0x0801ef7d   Thumb Code   154  moal_uap_priv.o(.text)
    wlan_11d_parse_domain_info               0x0801f153   Thumb Code   206  mlan_11d.o(.text)
    wlan_is_station                          0x0801f36d   Thumb Code    10  mlan_11d.o(.text)
    wlan_11d_is_enabled                      0x0801f377   Thumb Code    12  mlan_11d.o(.text)
    wlan_11d_priv_init                       0x0801f383   Thumb Code    30  mlan_11d.o(.text)
    wlan_11d_init                            0x0801f3a1   Thumb Code    58  mlan_11d.o(.text)
    wlan_11d_enable                          0x0801f3db   Thumb Code    48  mlan_11d.o(.text)
    wlan_cmd_802_11d_domain_info             0x0801f40b   Thumb Code   114  mlan_11d.o(.text)
    wlan_ret_802_11d_domain_info             0x0801f47d   Thumb Code    36  mlan_11d.o(.text)
    wlan_11d_chan_2_freq                     0x0801f4a1   Thumb Code    54  mlan_11d.o(.text)
    wlan_11d_set_universaltable              0x0801f4d7   Thumb Code   118  mlan_11d.o(.text)
    wlan_11d_get_scan_type                   0x0801f54d   Thumb Code    16  mlan_11d.o(.text)
    wlan_11d_clear_parsedtable               0x0801f55d   Thumb Code    38  mlan_11d.o(.text)
    wlan_11d_create_dnld_countryinfo         0x0801f583   Thumb Code   192  mlan_11d.o(.text)
    wlan_11d_parse_dnld_countryinfo          0x0801f643   Thumb Code   208  mlan_11d.o(.text)
    wlan_11d_prepare_dnld_domain_info_cmd    0x0801f713   Thumb Code   194  mlan_11d.o(.text)
    wlan_11d_cfg_domain_info                 0x0801f7d5   Thumb Code    94  mlan_11d.o(.text)
    wlan_11d_handle_uap_domain_info          0x0801f833   Thumb Code    94  mlan_11d.o(.text)
    wlan_11h_radar_detect_required           0x0801fc27   Thumb Code    32  mlan_11h.o(.text)
    wlan_11h_is_channel_under_nop            0x0801fe7d   Thumb Code    86  mlan_11h.o(.text)
    wlan_11h_is_master_radar_det_active      0x0801ff4f   Thumb Code     8  mlan_11h.o(.text)
    wlan_11h_config_master_radar_det         0x0801ff57   Thumb Code    34  mlan_11h.o(.text)
    wlan_11h_config_slave_radar_det          0x0801ff79   Thumb Code    34  mlan_11h.o(.text)
    wlan_11h_check_update_radar_det_state    0x0801ff9b   Thumb Code   148  mlan_11h.o(.text)
    wlan_11h_is_active                       0x0802002f   Thumb Code     6  mlan_11h.o(.text)
    wlan_11h_tx_enable                       0x08020035   Thumb Code    30  mlan_11h.o(.text)
    wlan_11h_tx_disable                      0x08020053   Thumb Code    24  mlan_11h.o(.text)
    wlan_11h_activate                        0x0802006b   Thumb Code    58  mlan_11h.o(.text)
    wlan_11h_init                            0x080200a5   Thumb Code   130  mlan_11h.o(.text)
    wlan_11h_cleanup                         0x08020127   Thumb Code    62  mlan_11h.o(.text)
    wlan_11h_priv_init                       0x08020165   Thumb Code    22  mlan_11h.o(.text)
    wlan_11h_get_adhoc_start_channel         0x0802017b   Thumb Code   140  mlan_11h.o(.text)
    wlan_11h_get_csa_closed_channel          0x08020207   Thumb Code    68  mlan_11h.o(.text)
    wlan_11h_issue_radar_detect              0x0802024b   Thumb Code    82  mlan_11h.o(.text)
    wlan_11h_check_chan_report               0x0802029d   Thumb Code    58  mlan_11h.o(.text)
    wlan_11h_process_start                   0x080202d7   Thumb Code   222  mlan_11h.o(.text)
    wlan_11h_process_join                    0x080203b5   Thumb Code   198  mlan_11h.o(.text)
    wlan_11h_cmd_process                     0x0802047b   Thumb Code   120  mlan_11h.o(.text)
    wlan_11h_cmdresp_process                 0x080204f3   Thumb Code    64  mlan_11h.o(.text)
    wlan_11h_process_bss_elem                0x08020533   Thumb Code   278  mlan_11h.o(.text)
    wlan_11h_handle_event_chanswann          0x08020649   Thumb Code   106  mlan_11h.o(.text)
    wlan_11h_handle_event_chanrpt_ready      0x080206b3   Thumb Code   132  mlan_11h.o(.text)
    wlan_11h_radar_detected_tx_blocked       0x08020737   Thumb Code    22  mlan_11h.o(.text)
    wlan_11h_radar_detected_handling         0x0802074d   Thumb Code  1250  mlan_11h.o(.text)
    wlan_11h_radar_detected_callback         0x08020c2f   Thumb Code     4  mlan_11h.o(.text)
    wlan_11h_dfs_event_preprocessing         0x08020c33   Thumb Code   104  mlan_11h.o(.text)
    wlan_11h_switch_non_dfs_chan             0x08020c9b   Thumb Code   198  mlan_11h.o(.text)
    wlan_send_addba                          0x08020f79   Thumb Code   124  mlan_11n.o(.text)
    wlan_send_delba                          0x08020ff5   Thumb Code   106  mlan_11n.o(.text)
    wlan_fill_ht_cap_tlv                     0x0802132f   Thumb Code   106  mlan_11n.o(.text)
    wlan_show_dot11ndevcap                   0x08021399   Thumb Code     2  mlan_11n.o(.text)
    wlan_show_devmcssupport                  0x0802139b   Thumb Code     2  mlan_11n.o(.text)
    wlan_11n_get_txbastream_tbl              0x0802139d   Thumb Code    74  mlan_11n.o(.text)
    wlan_11n_create_txbastream_tbl           0x080213e7   Thumb Code   116  mlan_11n.o(.text)
    wlan_ret_11n_delba                       0x0802145b   Thumb Code   110  mlan_11n.o(.text)
    wlan_ret_11n_addba_req                   0x080214c9   Thumb Code   164  mlan_11n.o(.text)
    wlan_cmd_recfg_tx_buf                    0x0802156d   Thumb Code    36  mlan_11n.o(.text)
    wlan_cmd_amsdu_aggr_ctrl                 0x08021591   Thumb Code    34  mlan_11n.o(.text)
    wlan_ret_amsdu_aggr_ctrl                 0x080215b3   Thumb Code    18  mlan_11n.o(.text)
    wlan_cmd_11n_cfg                         0x080215c5   Thumb Code    32  mlan_11n.o(.text)
    wlan_ret_11n_cfg                         0x080215e5   Thumb Code    26  mlan_11n.o(.text)
    wlan_cmd_reject_addba_req                0x080215ff   Thumb Code    28  mlan_11n.o(.text)
    wlan_ret_reject_addba_req                0x0802161b   Thumb Code    20  mlan_11n.o(.text)
    wlan_cmd_tx_bf_cfg                       0x0802162f   Thumb Code   178  mlan_11n.o(.text)
    wlan_ret_tx_bf_cfg                       0x080216e1   Thumb Code   236  mlan_11n.o(.text)
    wlan_cmd_append_11n_tlv                  0x080217cd   Thumb Code   444  mlan_11n.o(.text)
    wlan_11n_cfg_ioctl                       0x08021989   Thumb Code   546  mlan_11n.o(.text)
    wlan_11n_delete_txbastream_tbl_entry     0x08021bab   Thumb Code    98  mlan_11n.o(.text)
    wlan_11n_deleteall_txbastream_tbl        0x08021c0d   Thumb Code    62  mlan_11n.o(.text)
    wlan_11n_delete_bastream                 0x08021c4b   Thumb Code    26  mlan_11n.o(.text)
    wlan_get_rxreorder_tbl                   0x08021c65   Thumb Code   128  mlan_11n.o(.text)
    wlan_get_txbastream_tbl                  0x08021ce5   Thumb Code    80  mlan_11n.o(.text)
    wlan_11n_cleanup_txbastream_tbl          0x08021d35   Thumb Code    38  mlan_11n.o(.text)
    wlan_11n_deaggregate_pkt                 0x08021fbd   Thumb Code   342  mlan_11n_aggr.o(.text)
    wlan_11n_aggregate_pkt                   0x08022113   Thumb Code   824  mlan_11n_aggr.o(.text)
    wlan_11n_get_rxreorder_tbl               0x08022699   Thumb Code    76  mlan_11n_rxreorder.o(.text)
    wlan_cmd_11n_addba_req                   0x08022801   Thumb Code    34  mlan_11n_rxreorder.o(.text)
    wlan_cmd_11n_addba_rspgen                0x08022823   Thumb Code   188  mlan_11n_rxreorder.o(.text)
    wlan_cmd_11n_delba                       0x080228df   Thumb Code    34  mlan_11n_rxreorder.o(.text)
    mlan_11n_rxreorder_pkt                   0x08022901   Thumb Code   318  mlan_11n_rxreorder.o(.text)
    mlan_11n_delete_bastream_tbl             0x08022a3f   Thumb Code    70  mlan_11n_rxreorder.o(.text)
    wlan_ret_11n_addba_resp                  0x08022a85   Thumb Code    98  mlan_11n_rxreorder.o(.text)
    wlan_11n_ba_stream_timeout               0x08022ae7   Thumb Code    98  mlan_11n_rxreorder.o(.text)
    wlan_11n_cleanup_reorder_tbl             0x08022b49   Thumb Code    66  mlan_11n_rxreorder.o(.text)
    wlan_11n_rxba_sync_event                 0x08022b8b   Thumb Code   142  mlan_11n_rxreorder.o(.text)
    wlan_cleanup_reorder_tbl                 0x08022c19   Thumb Code    38  mlan_11n_rxreorder.o(.text)
    wlan_set_rxreorder_tbl_no_drop_flag      0x08022c3f   Thumb Code    42  mlan_11n_rxreorder.o(.text)
    wlan_update_rxreorder_tbl                0x08022c69   Thumb Code    36  mlan_11n_rxreorder.o(.text)
    wlan_misc_country_2_cfp_table_code       0x08022ea3   Thumb Code    74  mlan_cfp.o(.text)
    wlan_index_to_data_rate                  0x08022eed   Thumb Code   118  mlan_cfp.o(.text)
    wlan_data_rate_to_index                  0x08022f63   Thumb Code    50  mlan_cfp.o(.text)
    wlan_get_supported_rates                 0x08022f95   Thumb Code   178  mlan_cfp.o(.text)
    wlan_get_active_data_rates               0x08023047   Thumb Code    34  mlan_cfp.o(.text)
    wlan_get_txpwr_of_chan_from_cfp          0x08023069   Thumb Code   172  mlan_cfp.o(.text)
    wlan_get_cfp_by_band_and_channel         0x08023115   Thumb Code   122  mlan_cfp.o(.text)
    wlan_find_cfp_by_band_and_channel        0x0802318f   Thumb Code    42  mlan_cfp.o(.text)
    wlan_find_cfp_by_band_and_freq           0x080231b9   Thumb Code   170  mlan_cfp.o(.text)
    wlan_is_rate_auto                        0x08023263   Thumb Code    32  mlan_cfp.o(.text)
    wlan_get_rate_index                      0x08023283   Thumb Code    48  mlan_cfp.o(.text)
    wlan_set_regiontable                     0x080232b3   Thumb Code   366  mlan_cfp.o(.text)
    wlan_get_cfp_radar_detect                0x08023421   Thumb Code    94  mlan_cfp.o(.text)
    wlan_bg_scan_type_is_passive             0x0802347f   Thumb Code    94  mlan_cfp.o(.text)
    wlan_is_chan_blacklisted                 0x080234dd   Thumb Code    94  mlan_cfp.o(.text)
    wlan_set_chan_blacklist                  0x0802353b   Thumb Code   100  mlan_cfp.o(.text)
    wlan_atox                                0x0802368b   Thumb Code    68  mlan_cmdevt.o(.text)
    wlan_release_cmd_lock                    0x08023773   Thumb Code    14  mlan_cmdevt.o(.text)
    wlan_request_cmd_lock                    0x08023781   Thumb Code    14  mlan_cmdevt.o(.text)
    wlan_insert_cmd_to_free_q                0x0802378f   Thumb Code   150  mlan_cmdevt.o(.text)
    wlan_recv_event                          0x08023979   Thumb Code    64  mlan_cmdevt.o(.text)
    wlan_host_sleep_activated_event          0x080239b9   Thumb Code    60  mlan_cmdevt.o(.text)
    wlan_alloc_cmd_buffer                    0x08023ac5   Thumb Code   176  mlan_cmdevt.o(.text)
    wlan_free_cmd_buffer                     0x08023b75   Thumb Code    84  mlan_cmdevt.o(.text)
    wlan_process_event                       0x08023bc9   Thumb Code   172  mlan_cmdevt.o(.text)
    wlan_insert_cmd_to_pending_q             0x08023c75   Thumb Code   106  mlan_cmdevt.o(.text)
    wlan_prepare_cmd                         0x08023cdf   Thumb Code   308  mlan_cmdevt.o(.text)
    wlan_exec_next_cmd                       0x08023e13   Thumb Code   154  mlan_cmdevt.o(.text)
    wlan_ret_802_11_hs_cfg                   0x08023ead   Thumb Code    88  mlan_cmdevt.o(.text)
    wlan_process_cmdresp                     0x08023f05   Thumb Code   578  mlan_cmdevt.o(.text)
    wlan_cmd_timeout_func                    0x08024147   Thumb Code   188  mlan_cmdevt.o(.text)
    wlan_flush_scan_queue                    0x08024203   Thumb Code    80  mlan_cmdevt.o(.text)
    wlan_cancel_all_pending_cmd              0x08024253   Thumb Code   140  mlan_cmdevt.o(.text)
    wlan_cancel_pending_ioctl                0x080242df   Thumb Code   184  mlan_cmdevt.o(.text)
    wlan_ret_ver_ext                         0x08024397   Thumb Code    36  mlan_cmdevt.o(.text)
    wlan_ret_rx_mgmt_ind                     0x080243bb   Thumb Code    14  mlan_cmdevt.o(.text)
    wlan_check_ps_cond                       0x080243c9   Thumb Code    46  mlan_cmdevt.o(.text)
    wlan_host_sleep_wakeup_event             0x080243f7   Thumb Code    20  mlan_cmdevt.o(.text)
    wlan_process_hs_config                   0x0802440b   Thumb Code    14  mlan_cmdevt.o(.text)
    wlan_process_sleep_confirm_resp          0x08024419   Thumb Code    72  mlan_cmdevt.o(.text)
    wlan_cmd_enh_power_mode                  0x08024461   Thumb Code   234  mlan_cmdevt.o(.text)
    wlan_ret_enh_power_mode                  0x0802454b   Thumb Code   298  mlan_cmdevt.o(.text)
    wlan_ret_802_11_tx_rate_query            0x08024675   Thumb Code   240  mlan_cmdevt.o(.text)
    wlan_cmd_tx_rate_cfg                     0x08024765   Thumb Code   108  mlan_cmdevt.o(.text)
    wlan_ret_tx_rate_cfg                     0x080247d1   Thumb Code   222  mlan_cmdevt.o(.text)
    wlan_adapter_init_cmd                    0x080248af   Thumb Code   252  mlan_cmdevt.o(.text)
    wlan_cmd_get_hw_spec                     0x080249ab   Thumb Code    42  mlan_cmdevt.o(.text)
    wlan_cmd_cfg_data                        0x080249d5   Thumb Code   154  mlan_cmdevt.o(.text)
    wlan_ret_cfg_data                        0x08024a6f   Thumb Code    12  mlan_cmdevt.o(.text)
    wlan_ret_get_hw_spec                     0x08024a7b   Thumb Code   482  mlan_cmdevt.o(.text)
    wlan_cmd_802_11_radio_control            0x08024c5d   Thumb Code    42  mlan_cmdevt.o(.text)
    wlan_ret_802_11_radio_control            0x08024c87   Thumb Code    22  mlan_cmdevt.o(.text)
    wlan_cmd_hs_wakeup_reason                0x08024c9d   Thumb Code    14  mlan_cmdevt.o(.text)
    wlan_ret_hs_wakeup_reason                0x08024cab   Thumb Code    14  mlan_cmdevt.o(.text)
    wlan_cmd_802_11_rf_antenna               0x08024cb9   Thumb Code   100  mlan_cmdevt.o(.text)
    wlan_ret_802_11_rf_antenna               0x08024d1d   Thumb Code    38  mlan_cmdevt.o(.text)
    wlan_cmd_reg_access                      0x08024d43   Thumb Code    90  mlan_cmdevt.o(.text)
    wlan_ret_reg_access                      0x08024d9d   Thumb Code   122  mlan_cmdevt.o(.text)
    wlan_cmd_mem_access                      0x08024e17   Thumb Code    28  mlan_cmdevt.o(.text)
    wlan_ret_mem_access                      0x08024e33   Thumb Code    18  mlan_cmdevt.o(.text)
    wlan_allocate_adapter                    0x08024ec1   Thumb Code   132  mlan_init.o(.text)
    wlan_init_priv                           0x08024f45   Thumb Code   456  mlan_init.o(.text)
    wlan_init_adapter                        0x0802510d   Thumb Code   644  mlan_init.o(.text)
    wlan_init_lock_list                      0x08025391   Thumb Code   386  mlan_init.o(.text)
    wlan_free_lock_list                      0x08025513   Thumb Code   330  mlan_init.o(.text)
    wlan_init_timer                          0x0802565d   Thumb Code    30  mlan_init.o(.text)
    wlan_free_timer                          0x0802567b   Thumb Code    20  mlan_init.o(.text)
    wlan_init_fw                             0x0802568f   Thumb Code   136  mlan_init.o(.text)
    wlan_free_adapter                        0x08025717   Thumb Code   116  mlan_init.o(.text)
    wlan_free_priv                           0x0802578b   Thumb Code    30  mlan_init.o(.text)
    wlan_init_fw_complete                    0x080257a9   Thumb Code    20  mlan_init.o(.text)
    wlan_shutdown_fw_complete                0x080257bd   Thumb Code    16  mlan_init.o(.text)
    wlan_band_to_radio_type                  0x080259e9   Thumb Code    20  mlan_join.o(.text)
    wlan_cmd_802_11_associate                0x080259fd   Thumb Code  1054  mlan_join.o(.text)
    wlan_ret_802_11_associate                0x08025e1b   Thumb Code   654  mlan_join.o(.text)
    wlan_cmd_802_11_ad_hoc_start             0x080260a9   Thumb Code  1120  mlan_join.o(.text)
    wlan_cmd_802_11_ad_hoc_join              0x08026509   Thumb Code   826  mlan_join.o(.text)
    wlan_ret_802_11_ad_hoc                   0x08026843   Thumb Code   236  mlan_join.o(.text)
    wlan_associate                           0x0802692f   Thumb Code    82  mlan_join.o(.text)
    wlan_adhoc_start                         0x08026981   Thumb Code    82  mlan_join.o(.text)
    wlan_adhoc_join                          0x080269d3   Thumb Code    68  mlan_join.o(.text)
    wlan_disconnect                          0x08026a17   Thumb Code   136  mlan_join.o(.text)
    wlan_meas_util_send_req                  0x08026cdd   Thumb Code    56  mlan_meas.o(.text)
    wlan_meas_cmd_process                    0x08026d15   Thumb Code    90  mlan_meas.o(.text)
    wlan_meas_cmdresp_process                0x08026d6f   Thumb Code    74  mlan_meas.o(.text)
    wlan_misc_ioctl_host_cmd                 0x0802706b   Thumb Code    36  mlan_misc.o(.text)
    wlan_misc_ioctl_init_shutdown            0x0802708f   Thumb Code    62  mlan_misc.o(.text)
    wlan_get_info_debug_info                 0x080270cd   Thumb Code   976  mlan_misc.o(.text)
    wlan_pm_wakeup_card                      0x0802749d   Thumb Code    18  mlan_misc.o(.text)
    wlan_pm_reset_card                       0x080274af   Thumb Code    18  mlan_misc.o(.text)
    wlan_pm_ioctl_hscfg                      0x080274c1   Thumb Code   176  mlan_misc.o(.text)
    wlan_alloc_mlan_buffer                   0x08027571   Thumb Code   134  mlan_misc.o(.text)
    wlan_free_mlan_buffer                    0x080275f7   Thumb Code    28  mlan_misc.o(.text)
    wlan_delay_func                          0x08027613   Thumb Code   144  mlan_misc.o(.text)
    wlan_bss_ioctl_bss_role                  0x080276a3   Thumb Code   290  mlan_misc.o(.text)
    wlan_misc_ioctl_custom_ie_list           0x080277c5   Thumb Code  1014  mlan_misc.o(.text)
    wlan_reg_mem_ioctl_reg_rw                0x08027bbb   Thumb Code    90  mlan_misc.o(.text)
    wlan_reg_mem_ioctl_read_eeprom           0x08027c15   Thumb Code    38  mlan_misc.o(.text)
    wlan_reg_mem_ioctl_mem_rw                0x08027c3b   Thumb Code    46  mlan_misc.o(.text)
    wlan_is_station_list_empty               0x08027c69   Thumb Code    30  mlan_misc.o(.text)
    wlan_get_station_entry                   0x08027c87   Thumb Code    72  mlan_misc.o(.text)
    wlan_add_station_entry                   0x08027ccf   Thumb Code   160  mlan_misc.o(.text)
    wlan_delete_station_entry                0x08027d6f   Thumb Code    88  mlan_misc.o(.text)
    wlan_delete_station_list                 0x08027dc7   Thumb Code    86  mlan_misc.o(.text)
    wlan_get_info_ver_ext                    0x08027e1d   Thumb Code    36  mlan_misc.o(.text)
    wlan_reg_rx_mgmt_ind                     0x08027e41   Thumb Code    46  mlan_misc.o(.text)
    wlan_process_802dot11_mgmt_pkt           0x08027e6f   Thumb Code   208  mlan_misc.o(.text)
    wlan_misc_otp_user_data                  0x08027f3f   Thumb Code    58  mlan_misc.o(.text)
    wlan_is_wmm_ie_present                   0x08027f79   Thumb Code    82  mlan_misc.o(.text)
    wlan_get_specific_ie                     0x08027fcb   Thumb Code    38  mlan_misc.o(.text)
    wlan_get_pm_info                         0x08027ff1   Thumb Code    66  mlan_misc.o(.text)
    wlan_get_hs_wakeup_reason                0x08028033   Thumb Code    38  mlan_misc.o(.text)
    wlan_radio_ioctl_radio_ctl               0x08028059   Thumb Code    74  mlan_misc.o(.text)
    wlan_radio_ioctl_ant_cfg                 0x080280a3   Thumb Code   174  mlan_misc.o(.text)
    wlan_rate_ioctl_cfg                      0x08028341   Thumb Code    70  mlan_misc.o(.text)
    wlan_rate_ioctl_get_data_rate            0x08028387   Thumb Code    44  mlan_misc.o(.text)
    wlan_misc_ioctl_txcontrol                0x080283b3   Thumb Code    32  mlan_misc.o(.text)
    wlan_is_network_compatible               0x0802852f   Thumb Code   542  mlan_scan.o(.text)
    wlan_save_curr_bcn                       0x08029803   Thumb Code   134  mlan_scan.o(.text)
    wlan_ssid_cmp                            0x08029889   Thumb Code    44  mlan_scan.o(.text)
    wlan_find_ssid_in_list                   0x080298b5   Thumb Code   246  mlan_scan.o(.text)
    wlan_flush_scan_table                    0x08029c2f   Thumb Code    58  mlan_scan.o(.text)
    wlan_scan_networks                       0x08029c69   Thumb Code   352  mlan_scan.o(.text)
    wlan_cmd_802_11_scan                     0x08029dc9   Thumb Code    74  mlan_scan.o(.text)
    wlan_ret_802_11_scan                     0x08029e13   Thumb Code   716  mlan_scan.o(.text)
    wlan_cmd_802_11_scan_ext                 0x0802a0df   Thumb Code    44  mlan_scan.o(.text)
    wlan_ret_802_11_scan_ext                 0x0802a10b   Thumb Code     4  mlan_scan.o(.text)
    wlan_handle_event_ext_scan_report        0x0802a335   Thumb Code   180  mlan_scan.o(.text)
    wlan_cmd_802_11_bg_scan_query            0x0802a3e9   Thumb Code    20  mlan_scan.o(.text)
    wlan_cmd_bgscan_config                   0x0802a5bf   Thumb Code   558  mlan_scan.o(.text)
    wlan_ret_bgscan_config                   0x0802a7ed   Thumb Code    16  mlan_scan.o(.text)
    wlan_ret_802_11_bgscan_query             0x0802a7fd   Thumb Code    42  mlan_scan.o(.text)
    wlan_find_bssid_in_list                  0x0802a827   Thumb Code   170  mlan_scan.o(.text)
    wlan_queue_scan_cmd                      0x0802a8d1   Thumb Code    62  mlan_scan.o(.text)
    wlan_find_best_network                   0x0802a90f   Thumb Code   108  mlan_scan.o(.text)
    wlan_scan_specific_ssid                  0x0802a97b   Thumb Code   164  mlan_scan.o(.text)
    wlan_free_curr_bcn                       0x0802aa1f   Thumb Code    34  mlan_scan.o(.text)
    wlan_check_winner_status                 0x0802ae71   Thumb Code    36  mlan_sdio.o(.text)
    wlan_check_fw_status                     0x0802ae95   Thumb Code   106  mlan_sdio.o(.text)
    wlan_dnld_fw                             0x0802aeff   Thumb Code    16  mlan_sdio.o(.text)
    wlan_sdio_probe                          0x0802af0f   Thumb Code    76  mlan_sdio.o(.text)
    read_int_status                          0x0802af5b   Thumb Code    62  mlan_sdio.o(.text)
    wlan_interrupt                           0x0802af99   Thumb Code   116  mlan_sdio.o(.text)
    wlan_enable_host_int                     0x0802b00d   Thumb Code    24  mlan_sdio.o(.text)
    wlan_process_int_status                  0x0802b025   Thumb Code   572  mlan_sdio.o(.text)
    wlan_sdio_host_to_card                   0x0802b261   Thumb Code   230  mlan_sdio.o(.text)
    wlan_set_sdio_gpio_int                   0x0802b347   Thumb Code    70  mlan_sdio.o(.text)
    wlan_cmd_sdio_gpio_int                   0x0802b38d   Thumb Code    62  mlan_sdio.o(.text)
    mlan_register                            0x0802b4ab   Thumb Code   844  mlan_shim.o(.text)
    mlan_unregister                          0x0802b7f7   Thumb Code    78  mlan_shim.o(.text)
    mlan_dnld_fw                             0x0802b845   Thumb Code   142  mlan_shim.o(.text)
    mlan_set_init_param                      0x0802b8d3   Thumb Code    40  mlan_shim.o(.text)
    mlan_init_fw                             0x0802b8fb   Thumb Code    30  mlan_shim.o(.text)
    mlan_shutdown_fw                         0x0802b919   Thumb Code   122  mlan_shim.o(.text)
    mlan_main_process                        0x0802b993   Thumb Code   736  mlan_shim.o(.text)
    mlan_send_packet                         0x0802bc73   Thumb Code   116  mlan_shim.o(.text)
    mlan_ioctl                               0x0802bce7   Thumb Code    44  mlan_shim.o(.text)
    mlan_recv_packet_complete                0x0802bd13   Thumb Code    10  mlan_shim.o(.text)
    mlan_select_wmm_queue                    0x0802bd1d   Thumb Code    12  mlan_shim.o(.text)
    mlan_interrupt                           0x0802bd29   Thumb Code    28  mlan_shim.o(.text)
    wlan_ops_sta_prepare_cmd                 0x0802c345   Thumb Code  1570  mlan_sta_cmd.o(.text)
    wlan_ops_sta_init_cmd                    0x0802c967   Thumb Code   220  mlan_sta_cmd.o(.text)
    wlan_ops_sta_process_cmdresp             0x0802d035   Thumb Code  1758  mlan_sta_cmdresp.o(.text)
    wlan_reset_connect_state                 0x0802d8b5   Thumb Code   286  mlan_sta_event.o(.text)
    wlan_2040_coex_event                     0x0802d9d3   Thumb Code    76  mlan_sta_event.o(.text)
    wlan_ops_sta_process_event               0x0802da1f   Thumb Code  1062  mlan_sta_event.o(.text)
    wlan_find_bss                            0x0802e56b   Thumb Code   206  mlan_sta_ioctl.o(.text)
    wlan_bss_ioctl_find_bss                  0x0802e639   Thumb Code    42  mlan_sta_ioctl.o(.text)
    wlan_misc_ioctl_mac_control              0x0802f7bb   Thumb Code    56  mlan_sta_ioctl.o(.text)
    wlan_misc_ioctl_thermal                  0x0802f7f3   Thumb Code    72  mlan_sta_ioctl.o(.text)
    wlan_misc_ioctl_subscribe_evt            0x0802f83b   Thumb Code    46  mlan_sta_ioctl.o(.text)
    wlan_ipaddr_arp_filter                   0x0802f869   Thumb Code   194  mlan_sta_ioctl.o(.text)
    wlan_ipaddr_auto_arp_resp                0x0802f92b   Thumb Code   218  mlan_sta_ioctl.o(.text)
    wlan_misc_ioctl_mef_cfg                  0x0802fa05   Thumb Code   256  mlan_sta_ioctl.o(.text)
    wlan_misc_ioctl_ipaddr_cfg               0x0802fb05   Thumb Code   192  mlan_sta_ioctl.o(.text)
    wlan_misc_ioctl_cfp_code_cfg             0x0802fbc5   Thumb Code   364  mlan_sta_ioctl.o(.text)
    wlan_misc_ioctl_country_code             0x0802fd31   Thumb Code   168  mlan_sta_ioctl.o(.text)
    wlan_set_ewpa_mode                       0x08030103   Thumb Code    30  mlan_sta_ioctl.o(.text)
    wlan_ops_sta_ioctl                       0x08030121   Thumb Code   440  mlan_sta_ioctl.o(.text)
    wlan_process_rx_packet                   0x0803099d   Thumb Code   272  mlan_sta_rx.o(.text)
    wlan_ops_sta_process_rx_packet           0x08030aad   Thumb Code   262  mlan_sta_rx.o(.text)
    wlan_check_last_packet_indication        0x08030bd1   Thumb Code   114  mlan_sta_tx.o(.text)
    wlan_ops_sta_process_txpd                0x08030c43   Thumb Code   248  mlan_sta_tx.o(.text)
    wlan_send_null_packet                    0x08030d3b   Thumb Code   192  mlan_sta_tx.o(.text)
    wlan_handle_rx_packet                    0x08030e6f   Thumb Code   110  mlan_txrx.o(.text)
    wlan_write_data_complete                 0x08030edd   Thumb Code    84  mlan_txrx.o(.text)
    wlan_process_tx                          0x08030f31   Thumb Code   152  mlan_txrx.o(.text)
    wlan_recv_packet_complete                0x08030fc9   Thumb Code   104  mlan_txrx.o(.text)
    wlan_add_buf_bypass_txqueue              0x08031031   Thumb Code    70  mlan_txrx.o(.text)
    wlan_bypass_tx_list_empty                0x08031077   Thumb Code    32  mlan_txrx.o(.text)
    wlan_cleanup_bypass_txq                  0x08031097   Thumb Code    84  mlan_txrx.o(.text)
    wlan_process_bypass_tx                   0x080310eb   Thumb Code   128  mlan_txrx.o(.text)
    wlan_check_specific_ie                   0x080323f9   Thumb Code   134  mlan_uap_cmdevent.o(.text)
    wlan_ops_uap_prepare_cmd                 0x0803254d   Thumb Code   828  mlan_uap_cmdevent.o(.text)
    wlan_ops_uap_process_cmdresp             0x08032889   Thumb Code   794  mlan_uap_cmdevent.o(.text)
    wlan_ops_uap_process_event               0x08032ba3   Thumb Code  1016  mlan_uap_cmdevent.o(.text)
    wlan_ops_uap_init_cmd                    0x08032f9b   Thumb Code    54  mlan_uap_cmdevent.o(.text)
    wlan_uap_set_channel                     0x08033255   Thumb Code    74  mlan_uap_ioctl.o(.text)
    wlan_uap_get_channel                     0x0803332b   Thumb Code    56  mlan_uap_ioctl.o(.text)
    wlan_uap_get_beacon_dtim                 0x0803354b   Thumb Code    72  mlan_uap_ioctl.o(.text)
    wlan_ops_uap_ioctl                       0x08033593   Thumb Code  1468  mlan_uap_ioctl.o(.text)
    wlan_ops_uap_process_txpd                0x08033d95   Thumb Code   226  mlan_uap_txrx.o(.text)
    wlan_process_uap_rx_packet               0x08033e77   Thumb Code   364  mlan_uap_txrx.o(.text)
    wlan_ops_uap_process_rx_packet           0x08033fe3   Thumb Code   302  mlan_uap_txrx.o(.text)
    wlan_uap_recv_packet                     0x08034111   Thumb Code   332  mlan_uap_txrx.o(.text)
    wlan_wmm_get_ralist_node                 0x08034449   Thumb Code    70  mlan_wmm.o(.text)
    wlan_get_random_ba_threshold             0x0803448f   Thumb Code    48  mlan_wmm.o(.text)
    wlan_ralist_add                          0x080344bf   Thumb Code   240  mlan_wmm.o(.text)
    wlan_is_ralist_valid                     0x080347ff   Thumb Code    48  mlan_wmm.o(.text)
    wlan_updata_ralist_tx_pause              0x08034c9b   Thumb Code   134  mlan_wmm.o(.text)
    wlan_clean_txrx                          0x08034d21   Thumb Code   182  mlan_wmm.o(.text)
    wlan_wmm_default_queue_priorities        0x08034dd7   Thumb Code    28  mlan_wmm.o(.text)
    wlan_wmm_setup_queue_priorities          0x08034df3   Thumb Code   190  mlan_wmm.o(.text)
    wlan_wmm_setup_ac_downgrade              0x08034eb1   Thumb Code    86  mlan_wmm.o(.text)
    wlan_wmm_init                            0x08034f07   Thumb Code   192  mlan_wmm.o(.text)
    wlan_wmm_setup_queues                    0x08034fc7   Thumb Code    18  mlan_wmm.o(.text)
    wlan_cmd_wmm_status_change               0x08034fd9   Thumb Code    18  mlan_wmm.o(.text)
    wlan_wmm_lists_empty                     0x08034feb   Thumb Code    62  mlan_wmm.o(.text)
    wlan_ralist_update                       0x08035029   Thumb Code   114  mlan_wmm.o(.text)
    wlan_wmm_add_buf_txqueue                 0x0803509b   Thumb Code   412  mlan_wmm.o(.text)
    wlan_ret_wmm_get_status                  0x08035237   Thumb Code   230  mlan_wmm.o(.text)
    wlan_wmm_process_association_req         0x0803531d   Thumb Code   134  mlan_wmm.o(.text)
    wlan_wmm_compute_driver_packet_delay     0x080353a3   Thumb Code    64  mlan_wmm.o(.text)
    wlan_wmm_process_tx                      0x080353e3   Thumb Code    42  mlan_wmm.o(.text)
    wlan_wmm_select_queue                    0x0803540d   Thumb Code    46  mlan_wmm.o(.text)
    wlan_drop_tx_pkts                        0x0803543b   Thumb Code    94  mlan_wmm.o(.text)
    wlan_wmm_delete_peer_ralist              0x08035499   Thumb Code   186  mlan_wmm.o(.text)
    wlan_cmd_wmm_addts_req                   0x08035553   Thumb Code    58  mlan_wmm.o(.text)
    wlan_ret_wmm_addts_req                   0x0803558d   Thumb Code    64  mlan_wmm.o(.text)
    wlan_cmd_wmm_delts_req                   0x080355cd   Thumb Code    84  mlan_wmm.o(.text)
    wlan_ret_wmm_delts_req                   0x08035621   Thumb Code    48  mlan_wmm.o(.text)
    wlan_cmd_wmm_queue_stats                 0x08035651   Thumb Code    92  mlan_wmm.o(.text)
    wlan_ret_wmm_queue_stats                 0x080356ad   Thumb Code    74  mlan_wmm.o(.text)
    wlan_cmd_wmm_ts_status                   0x080356f7   Thumb Code    36  mlan_wmm.o(.text)
    wlan_ret_wmm_ts_status                   0x0803571b   Thumb Code    30  mlan_wmm.o(.text)
    wlan_cmd_wmm_queue_config                0x08035739   Thumb Code    32  mlan_wmm.o(.text)
    wlan_ret_wmm_queue_config                0x08035759   Thumb Code    22  mlan_wmm.o(.text)
    wlan_wmm_cfg_ioctl                       0x0803576f   Thumb Code   312  mlan_wmm.o(.text)
    delay_1us                                0x08035b71   Thumb Code     8  sys_misc.o(.text)
    delay_us                                 0x08035b79   Thumb Code    16  sys_misc.o(.text)
    led_switch                               0x08035b89   Thumb Code    62  sys_misc.o(.text)
    led_bright                               0x08035bc7   Thumb Code    74  sys_misc.o(.text)
    led_scan                                 0x08035c11   Thumb Code   118  sys_misc.o(.text)
    button_stat_callback                     0x08035c87   Thumb Code   124  sys_misc.o(.text)
    assert_failed                            0x08035d03   Thumb Code    58  sys_misc.o(.text)
    led4_timer_callback                      0x08035d3d   Thumb Code    46  sys_misc.o(.text)
    led5_timer_callback                      0x08035d6b   Thumb Code    46  sys_misc.o(.text)
    misc_init                                0x08035d99   Thumb Code    42  sys_misc.o(.text)
    show_sys_info                            0x08035dc3   Thumb Code    84  sys_misc.o(.text)
    soft_reset                               0x08035e17   Thumb Code    66  sys_misc.o(.text)
    HardFault_Handler                        0x08035e59   Thumb Code    64  sys_misc.o(.text)
    App_TaskCreateHook                       0x08035e99   Thumb Code     2  sys_misc.o(.text)
    App_TaskDelHook                          0x08035e9b   Thumb Code     2  sys_misc.o(.text)
    App_TaskReturnHook                       0x08035e9d   Thumb Code     2  sys_misc.o(.text)
    App_TCBInitHook                          0x08035e9f   Thumb Code     2  sys_misc.o(.text)
    App_TaskSwHook                           0x08035ea1   Thumb Code     2  sys_misc.o(.text)
    App_TimeTickHook                         0x08035ea3   Thumb Code     2  sys_misc.o(.text)
    App_TaskStatHook                         0x08035ea5   Thumb Code   162  sys_misc.o(.text)
    switch_dbg                               0x08035f47   Thumb Code   364  sys_misc.o(.text)
    usr_gpio_init                            0x080360b3   Thumb Code    94  sys_misc.o(.text)
    get_wifi_dev                             0x08036125   Thumb Code     6  wifi.o(.text)
    is_hw_ok                                 0x0803612b   Thumb Code    12  wifi.o(.text)
    wifi_disconnect                          0x08036137   Thumb Code    86  wifi.o(.text)
    wifi_stop_ap                             0x0803618d   Thumb Code    38  wifi.o(.text)
    wifi_set_mode                            0x080361b3   Thumb Code   196  wifi.o(.text)
    wifi_set_multicast                       0x08036277   Thumb Code    36  wifi.o(.text)
    wifi_set_promisc                         0x0803629b   Thumb Code     6  wifi.o(.text)
    wifi_set_channel                         0x080362a1   Thumb Code   128  wifi.o(.text)
    wifi_ap_cfg                              0x08036321   Thumb Code   302  wifi.o(.text)
    wifi_join_adhoc                          0x0803644f   Thumb Code   382  wifi.o(.text)
    wifi_leave_adhoc                         0x080365cd   Thumb Code    90  wifi.o(.text)
    wifi_get_sta_list                        0x08036627   Thumb Code   122  wifi.o(.text)
    new_scan_req                             0x080366a1   Thumb Code   248  wifi.o(.text)
    wifi_scan                                0x08036799   Thumb Code   118  wifi.o(.text)
    is_wifi_connected                        0x0803680f   Thumb Code    20  wifi.o(.text)
    wifi_connect                             0x08036823   Thumb Code   334  wifi.o(.text)
    wifi_get_mac                             0x08036971   Thumb Code    22  wifi.o(.text)
    wifi_get_stats                           0x08036987   Thumb Code   264  wifi.o(.text)
    wifi_power_cfg                           0x08036a8f   Thumb Code   158  wifi.o(.text)
    event_callback                           0x08036b2d   Thumb Code     4  wifi.o(.text)
    create_mac                               0x08036b31   Thumb Code   100  wifi.o(.text)
    register_netdev                          0x08036b95   Thumb Code    82  wifi.o(.text)
    init_wifi                                0x08036be7   Thumb Code    18  wifi.o(.text)
    put_page                                 0x08036c2d   Thumb Code    76  skbuff.o(.text)
    __kfree_skb                              0x08036cf3   Thumb Code    18  skbuff.o(.text)
    kfree_skb                                0x08036d05   Thumb Code    30  skbuff.o(.text)
    skb_clone                                0x08036e1b   Thumb Code   104  skbuff.o(.text)
    skb_copy_from_linear_data_offset         0x08036e83   Thumb Code    20  skbuff.o(.text)
    skb_copy_bits                            0x08036e97   Thumb Code   344  skbuff.o(.text)
    get_page                                 0x08036fef   Thumb Code   258  skbuff.o(.text)
    pskb_expand_head                         0x080370f1   Thumb Code   444  skbuff.o(.text)
    __pskb_pull_tail                         0x080372ad   Thumb Code   442  skbuff.o(.text)
    skb_tailroom                             0x08037493   Thumb Code    20  skbuff.o(.text)
    skb_reserve                              0x080374a7   Thumb Code   106  skbuff.o(.text)
    skb_mac_header                           0x08037511   Thumb Code     4  skbuff.o(.text)
    skb_reset_mac_header                     0x08037515   Thumb Code     8  skbuff.o(.text)
    __alloc_skb                              0x0803751d   Thumb Code   204  skbuff.o(.text)
    __dev_alloc_skb                          0x080375e9   Thumb Code    36  skbuff.o(.text)
    skb_copy_from_linear_data                0x0803760d   Thumb Code    12  skbuff.o(.text)
    __netdev_alloc_skb                       0x08037619   Thumb Code    36  skbuff.o(.text)
    dev_alloc_skb                            0x0803763d   Thumb Code     4  skbuff.o(.text)
    get_global_skb_alloc                     0x08037641   Thumb Code     6  skbuff.o(.text)
    consume_skb                              0x08037647   Thumb Code    32  skbuff.o(.text)
    skb_recycle_check                        0x08037667   Thumb Code   126  skbuff.o(.text)
    skb_morph                                0x080376e5   Thumb Code    22  skbuff.o(.text)
    skb_put                                  0x0803772d   Thumb Code    40  skbuff.o(.text)
    skb_copy                                 0x08037755   Thumb Code    94  skbuff.o(.text)
    pskb_copy                                0x080377b3   Thumb Code   184  skbuff.o(.text)
    skb_realloc_headroom                     0x0803786b   Thumb Code    62  skbuff.o(.text)
    skb_copy_expand                          0x080378a9   Thumb Code   148  skbuff.o(.text)
    skb_push                                 0x0803793d   Thumb Code    44  skbuff.o(.text)
    do_gettimeofday                          0x08037add   Thumb Code    34  usr_cfg.o(.text)
    timeval_to_ktime                         0x08037aff   Thumb Code    16  usr_cfg.o(.text)
    INIT_LIST_HEAD                           0x08037b0f   Thumb Code     6  usr_cfg.o(.text)
    __list_add                               0x08037b15   Thumb Code    10  usr_cfg.o(.text)
    list_add                                 0x08037b1f   Thumb Code    12  usr_cfg.o(.text)
    list_add_tail                            0x08037b2b   Thumb Code    12  usr_cfg.o(.text)
    __list_del                               0x08037b37   Thumb Code     6  usr_cfg.o(.text)
    __list_del_entry                         0x08037b3d   Thumb Code     8  usr_cfg.o(.text)
    list_del                                 0x08037b45   Thumb Code    16  usr_cfg.o(.text)
    copy_from_user                           0x08037b55   Thumb Code    10  usr_cfg.o(.text)
    try_module_get                           0x08037b5f   Thumb Code     4  usr_cfg.o(.text)
    module_put                               0x08037b63   Thumb Code     4  usr_cfg.o(.text)
    ieee80211_get_channel                    0x08037b67   Thumb Code    68  usr_cfg.o(.text)
    wpa_parse_wpa_ie_rsn                     0x08037c7f   Thumb Code   438  usr_cfg.o(.text)
    wpa_parse_wpa_ie                         0x08038141   Thumb Code    12  usr_cfg.o(.text)
    wpa_sm_parse_own_wpa_ie                  0x0803814d   Thumb Code    44  usr_cfg.o(.text)
    handle_user_scan_result                  0x08038179   Thumb Code   192  usr_cfg.o(.text)
    cfg80211_inform_bss                      0x08038239   Thumb Code   136  usr_cfg.o(.text)
    wiphy_free                               0x080382c1   Thumb Code    54  usr_cfg.o(.text)
    wiphy_unregister                         0x080382f7   Thumb Code    54  usr_cfg.o(.text)
    ieee80211_channel_to_frequency           0x0803832d   Thumb Code    52  usr_cfg.o(.text)
    ieee80211_frequency_to_channel           0x08038361   Thumb Code    52  usr_cfg.o(.text)
    strnicmp                                 0x08038395   Thumb Code    62  usr_cfg.o(.text)
    cfg80211_scan_done                       0x080383d3   Thumb Code    72  usr_cfg.o(.text)
    cfg80211_connect_result                  0x0803841b   Thumb Code    64  usr_cfg.o(.text)
    cfg80211_cqm_rssi_notify                 0x0803845b   Thumb Code    54  usr_cfg.o(.text)
    cfg80211_michael_mic_failure             0x08038491   Thumb Code    54  usr_cfg.o(.text)
    cfg80211_ibss_joined                     0x080384c7   Thumb Code    54  usr_cfg.o(.text)
    cfg80211_put_bss                         0x080384fd   Thumb Code    12  usr_cfg.o(.text)
    cfg80211_remain_on_channel_expired       0x08038509   Thumb Code    54  usr_cfg.o(.text)
    cfg80211_ready_on_channel                0x0803853f   Thumb Code   230  usr_cfg.o(.text)
    eth_type_trans                           0x08038625   Thumb Code    30  usr_cfg.o(.text)
    netif_rx                                 0x08038643   Thumb Code    38  usr_cfg.o(.text)
    print_scan_result                        0x0803866d   Thumb Code   546  test_wifi.o(.text)
    scan_result_fun                          0x0803888f   Thumb Code     8  test_wifi.o(.text)
    test_scan                                0x08038897   Thumb Code   118  test_wifi.o(.text)
    test_wifi_connect                        0x0803890d   Thumb Code   250  test_wifi.o(.text)
    test_create_ap                           0x08038a07   Thumb Code   554  test_wifi.o(.text)
    test_wifi_disconnect                     0x08038c31   Thumb Code   128  test_wifi.o(.text)
    test_wifi_join_adhoc                     0x08038cb1   Thumb Code   146  test_wifi.o(.text)
    test_wifi_leave_adhoc                    0x08038d43   Thumb Code   128  test_wifi.o(.text)
    test_wifi_get_stats                      0x08038dc3   Thumb Code   114  test_wifi.o(.text)
    test_stop_ap                             0x08038e35   Thumb Code   128  test_wifi.o(.text)
    test_get_station_list                    0x08038eb5   Thumb Code   480  test_wifi.o(.text)
    test_power_save_enable                   0x08039095   Thumb Code    66  test_wifi.o(.text)
    test_power_save_disable                  0x080390d7   Thumb Code    66  test_wifi.o(.text)
    handle_cmd                               0x08039141   Thumb Code   424  main.o(.text)
    main_thread                              0x080392e9   Thumb Code   442  main.o(.text)
    main                                     0x080394a3   Thumb Code    42  main.o(.text)
    test_tcp_link                            0x0803959d   Thumb Code   220  test_tcpip.o(.text)
    test_udp_link                            0x08039679   Thumb Code   222  test_tcpip.o(.text)
    test_multicast_send_data                 0x08039757   Thumb Code   310  test_tcpip.o(.text)
    test_multicast_join                      0x0803988d   Thumb Code   470  test_tcpip.o(.text)
    test_udp_server                          0x08039a63   Thumb Code   184  test_tcpip.o(.text)
    close_socket                             0x08039b1b   Thumb Code   342  test_tcpip.o(.text)
    test_tcp_unlink                          0x08039c71   Thumb Code   142  test_tcpip.o(.text)
    test_send                                0x08039cff   Thumb Code   538  test_tcpip.o(.text)
    tcp_send_thread                          0x08039f19   Thumb Code   306  test_tcpip.o(.text)
    test_full_speed_send                     0x0803a04b   Thumb Code   154  test_tcpip.o(.text)
    test_full_speed_send_stop                0x0803a0e5   Thumb Code   130  test_tcpip.o(.text)
    test_sendto                              0x0803a167   Thumb Code   226  test_tcpip.o(.text)
    test_close_tcp_server                    0x0803a249   Thumb Code   168  test_tcpip.o(.text)
    tcp_accept_task                          0x0803a2f1   Thumb Code   440  test_tcpip.o(.text)
    test_dns                                 0x0803a4a9   Thumb Code   200  test_tcpip.o(.text)
    test_tcp_server                          0x0803a571   Thumb Code   348  test_tcpip.o(.text)
    show_tcpip_info                          0x0803a6cd   Thumb Code   532  test_tcpip.o(.text)
    test_auto_get_ip                         0x0803a8e1   Thumb Code   118  test_tcpip.o(.text)
    is_led_ctrl_cmd                          0x0803a957   Thumb Code    30  test_tcpip.o(.text)
    is_udp_server_socket                     0x0803a975   Thumb Code    34  test_tcpip.o(.text)
    is_dhcp_socket                           0x0803a997   Thumb Code    34  test_tcpip.o(.text)
    is_web_socket                            0x0803a9b9   Thumb Code    34  test_tcpip.o(.text)
    switch_loopback_test                     0x0803a9db   Thumb Code   110  test_tcpip.o(.text)
    tcp_recv_thread                          0x0803aa49   Thumb Code   890  test_tcpip.o(.text)
    tcpip_init_end                           0x0803adcd   Thumb Code    62  tcpapp.o(.text)
    lwip_netif_init                          0x0803ae0b   Thumb Code   132  tcpapp.o(.text)
    auto_get_ip                              0x0803ae8f   Thumb Code   110  tcpapp.o(.text)
    get_host_by_name                         0x0803aefd   Thumb Code    46  tcpapp.o(.text)
    get_connect_stat                         0x0803af2b   Thumb Code   110  tcpapp.o(.text)
    tcp_link                                 0x0803af99   Thumb Code   340  tcpapp.o(.text)
    udp_link                                 0x0803b0ed   Thumb Code   594  tcpapp.o(.text)
    udp_add_membership                       0x0803b33f   Thumb Code   402  tcpapp.o(.text)
    udp_create_server                        0x0803b4d1   Thumb Code   320  tcpapp.o(.text)
    udp_data_send                            0x0803b611   Thumb Code   564  tcpapp.o(.text)
    init_lwip                                0x0803b845   Thumb Code    52  tcpapp.o(.text)
    monitor_switch                           0x0803b8b5   Thumb Code   110  debug.o(.text)
    send_test_pkg                            0x0803b923   Thumb Code   182  debug.o(.text)
    get_msp_size                             0x0803b9d9   Thumb Code     6  debug.o(.text)
    get_msp_free                             0x0803b9df   Thumb Code    22  debug.o(.text)
    send_sys_stat_data                       0x0803b9f5   Thumb Code  1580  debug.o(.text)
    send_task_stat_data                      0x0803c021   Thumb Code   814  debug.o(.text)
    send_socket_stat_data                    0x0803c34f   Thumb Code  1706  debug.o(.text)
    handle_sys_monitor                       0x0803c9f9   Thumb Code    44  debug.o(.text)
    dev_monitor_task                         0x0803ca25   Thumb Code    34  debug.o(.text)
    fix_xrf_params                           0x0803caa1   Thumb Code    62  monitor.o(.text)
    init_monitor                             0x0803cadf   Thumb Code    34  monitor.o(.text)
    __rt_ctype_table                         0x0803cb19   Thumb Code     4  ctype_o.o(.text)
    tolower                                  0x0803cb21   Thumb Code    12  tolower.o(.text)
    ____aeabi_memcpy8$ret$move               0x0803cb2d   Thumb Code     0  memmove.o(.text)
    ___aeabi_memmove4$ret                    0x0803cb2d   Thumb Code     0  memmove.o(.text)
    ___aeabi_memmove8$ret                    0x0803cb2d   Thumb Code     0  memmove.o(.text)
    __aeabi_memcpy                           0x0803cb2d   Thumb Code    66  memmove.o(.text)
    __aeabi_memcpy4                          0x0803cb2d   Thumb Code     0  memmove.o(.text)
    __aeabi_memmove                          0x0803cb2d   Thumb Code     0  memmove.o(.text)
    memcpy                                   0x0803cb2d   Thumb Code     0  memmove.o(.text)
    memmove                                  0x0803cb2d   Thumb Code     0  memmove.o(.text)
    __aeabi_memset                           0x0803cb6f   Thumb Code    14  memseta.o(.text)
    __aeabi_memset4                          0x0803cb6f   Thumb Code     0  memseta.o(.text)
    __aeabi_memset8                          0x0803cb6f   Thumb Code     0  memseta.o(.text)
    __aeabi_memclr                           0x0803cb7d   Thumb Code     4  memseta.o(.text)
    __aeabi_memclr4                          0x0803cb7d   Thumb Code     0  memseta.o(.text)
    __aeabi_memclr8                          0x0803cb7d   Thumb Code     0  memseta.o(.text)
    memset                                   0x0803cb81   Thumb Code    20  memseta.o(.text)
    strcat                                   0x0803cb95   Thumb Code    28  strcat.o(.text)
    strncpy                                  0x0803cbb1   Thumb Code    24  strncpy.o(.text)
    strlen                                   0x0803cbc9   Thumb Code    16  strlen.o(.text)
    strcmp                                   0x0803cbd9   Thumb Code    28  strcmp.o(.text)
    memcmp                                   0x0803cbf5   Thumb Code    26  memcmp.o(.text)
    strcpy                                   0x0803cc0f   Thumb Code    18  strcpy.o(.text)
    strncmp                                  0x0803cc21   Thumb Code    30  strncmp.o(.text)
    __aeabi_uidiv                            0x0803cc3f   Thumb Code     0  uidiv.o(.text)
    __aeabi_uidivmod                         0x0803cc3f   Thumb Code    44  uidiv.o(.text)
    __aeabi_uldivmod                         0x0803cc6b   Thumb Code   102  uldiv.o(.text)
    __I$use$fp                               0x0803ccd1   Thumb Code     0  iusefp.o(.text)
    __aeabi_dadd                             0x0803ccd1   Thumb Code   318  dadd.o(.text)
    __aeabi_dsub                             0x0803ce0f   Thumb Code     6  dadd.o(.text)
    __aeabi_drsub                            0x0803ce15   Thumb Code     6  dadd.o(.text)
    __aeabi_dmul                             0x0803ce1b   Thumb Code   226  dmul.o(.text)
    __aeabi_ddiv                             0x0803cefd   Thumb Code   222  ddiv.o(.text)
    __aeabi_d2ulz                            0x0803cfdb   Thumb Code    48  dfixul.o(.text)
    __aeabi_cdrcmple                         0x0803d00d   Thumb Code    38  cdrcmple.o(.text)
    __scatterload                            0x0803d035   Thumb Code    28  init.o(.text)
    __scatterload_rt2                        0x0803d035   Thumb Code     0  init.o(.text)
    __aeabi_llsl                             0x0803d059   Thumb Code    30  llshl.o(.text)
    _ll_shift_l                              0x0803d059   Thumb Code     0  llshl.o(.text)
    __aeabi_llsr                             0x0803d077   Thumb Code    32  llushr.o(.text)
    _ll_ushift_r                             0x0803d077   Thumb Code     0  llushr.o(.text)
    __aeabi_lasr                             0x0803d097   Thumb Code    36  llsshr.o(.text)
    _ll_sshift_r                             0x0803d097   Thumb Code     0  llsshr.o(.text)
    _double_round                            0x0803d0bb   Thumb Code    26  depilogue.o(.text)
    _double_epilogue                         0x0803d0d5   Thumb Code   168  depilogue.o(.text)
    __decompress                             0x0803d17d   Thumb Code     0  __dczerorl2.o(.text)
    __decompress1                            0x0803d17d   Thumb Code    92  __dczerorl2.o(.text)
    __0printf$8                              0x0803d1d9   Thumb Code    22  printf8.o(i.__0printf$8)
    __1printf$8                              0x0803d1d9   Thumb Code     0  printf8.o(i.__0printf$8)
    __2printf                                0x0803d1d9   Thumb Code     0  printf8.o(i.__0printf$8)
    __0snprintf                              0x0803d1f9   Thumb Code    36  printfa.o(i.__0snprintf)
    __1snprintf                              0x0803d1f9   Thumb Code     0  printfa.o(i.__0snprintf)
    __2snprintf$full                         0x0803d1f9   Thumb Code     0  printfa.o(i.__0snprintf)
    __c89snprintf                            0x0803d1f9   Thumb Code     0  printfa.o(i.__0snprintf)
    snprintf                                 0x0803d1f9   Thumb Code     0  printfa.o(i.__0snprintf)
    __0snprintf$8                            0x0803d221   Thumb Code    36  printf8.o(i.__0snprintf$8)
    __1snprintf$8                            0x0803d221   Thumb Code     0  printf8.o(i.__0snprintf$8)
    __2snprintf                              0x0803d221   Thumb Code     0  printf8.o(i.__0snprintf$8)
    __0sprintf$8                             0x0803d249   Thumb Code    34  printf8.o(i.__0sprintf$8)
    __1sprintf$8                             0x0803d249   Thumb Code     0  printf8.o(i.__0sprintf$8)
    __2sprintf                               0x0803d249   Thumb Code     0  printf8.o(i.__0sprintf$8)
    __free$realloc                           0x0803d271   Thumb Code    88  mallocr.o(i.__free$realloc)
    __malloc$realloc                         0x0803d2cd   Thumb Code    64  mallocr.o(i.__malloc$realloc)
    __scatterload_copy                       0x0803d31d   Thumb Code    14  handlers.o(i.__scatterload_copy)
    __scatterload_null                       0x0803d32b   Thumb Code     2  handlers.o(i.__scatterload_null)
    __scatterload_zeroinit                   0x0803d32d   Thumb Code    14  handlers.o(i.__scatterload_zeroinit)
    enter_interrupt                          0x0803e06d   Thumb Code    10  usart.o(i.enter_interrupt)
    exit_interrupt                           0x0803e07d   Thumb Code    16  usart.o(i.exit_interrupt)
    local_irq_save                           0x0803e0d9   Thumb Code     4  sdcard.o(i.local_irq_save)
    realloc                                  0x0803e0dd   Thumb Code   108  mallocr.o(i.realloc)
    ADCPrescTable                            0x0803e14c   Data           4  stm32f10x_rcc.o(.constdata)
    APBAHBPrescTable                         0x0803e150   Data          16  stm32f10x_rcc.o(.constdata)
    SystemFrequency                          0x0803e160   Data           4  system_stm32f10x.o(.constdata)
    OSUnMapTbl                               0x0803e195   Data         256  os_core.o(.constdata)
    not_used_name                            0x0803e2b4   Data           9  memory.o(.constdata)
    pvNullPointer                            0x0803e3d4   Data           4  sys_arch.o(.constdata)
    zero_ref                                 0x0803e3e8   Data           4  def.o(.constdata)
    memp_sizes                               0x0803e4d4   Data          32  memp.o(.constdata)
    tcp_persist_backoff                      0x0803e508   Data           7  tcp.o(.constdata)
    tcp_state_str                            0x0803e510   Data          44  tcp.o(.constdata)
    tcp_backoff                              0x0803e53c   Data          13  tcp.o(.constdata)
    tcp_pcb_lists                            0x0803e54c   Data          16  tcp.o(.constdata)
    ip_addr_any                              0x0803e660   Data           4  ip_addr.o(.constdata)
    ip_addr_broadcast                        0x0803e664   Data           4  ip_addr.o(.constdata)
    ethbroadcast                             0x0803e6c4   Data           6  etharp.o(.constdata)
    ethzero                                  0x0803e6ca   Data           6  etharp.o(.constdata)
    broken_vendors                           0x0803e714   Data          16  dhcpd.o(.constdata)
    blank_chaddr                             0x0803e767   Data          16  leases.o(.constdata)
    options                                  0x0803e780   Data         324  options.o(.constdata)
    option_lengths                           0x0803e8c4   Data          40  options.o(.constdata)
    fm_88w8287                               0x0803e92c   Data       249580  moal_main.o(.constdata)
    woal_netdev_ops                          0x0807b818   Data          40  moal_main.o(.constdata)
    woal_uap_netdev_ops                      0x0807b840   Data          40  moal_main.o(.constdata)
    cfg80211_wext                            0x0807b9a8   Data           4  moal_main.o(.constdata)
    cfg80211_rates                           0x0807b9ac   Data         168  moal_cfg80211.o(.constdata)
    cfg80211_channels_2ghz                   0x0807ba54   Data         504  moal_cfg80211.o(.constdata)
    cfg80211_channels_5ghz                   0x0807bc4c   Data        1116  moal_cfg80211.o(.constdata)
    cfg80211_cipher_suites                   0x0807c0a8   Data          40  moal_cfg80211.o(.constdata)
    woal_callbacks                           0x0807c1c4   Data         132  moal_shim.o(.constdata)
    woal_cfg80211_sta_ops                    0x0807c284   Data          96  moal_sta_cfg80211.o(.constdata)
    woal_cfg80211_uap_ops                    0x0807c33c   Data          96  moal_uap_cfg80211.o(.constdata)
    SupportedRates_N                         0x0807c630   Data           3  mlan_cfp.o(.constdata)
    AdhocRates_B                             0x0807c633   Data           5  mlan_cfp.o(.constdata)
    SupportedRates_B                         0x0807c638   Data           5  mlan_cfp.o(.constdata)
    AdhocRates_G                             0x0807c810   Data           9  mlan_cfp.o(.constdata)
    AdhocRates_BG                            0x0807c819   Data          13  mlan_cfp.o(.constdata)
    AdhocRates_A                             0x0807c826   Data           9  mlan_cfp.o(.constdata)
    SupportedRates_A                         0x0807c82f   Data           9  mlan_cfp.o(.constdata)
    WlanDataRates                            0x0807c838   Data          64  mlan_cfp.o(.constdata)
    SupportedRates_G                         0x0807c878   Data           9  mlan_cfp.o(.constdata)
    SupportedRates_BG                        0x0807c881   Data          13  mlan_cfp.o(.constdata)
    region_code_index                        0x0807d678   Data          18  mlan_cfp.o(.constdata)
    cfp_code_index_bg                        0x0807d68a   Data           2  mlan_cfp.o(.constdata)
    cfp_code_index_a                         0x0807d68c   Data          10  mlan_cfp.o(.constdata)
    mlan_sta_ops                             0x0807d74c   Data          32  mlan_shim.o(.constdata)
    mlan_uap_ops                             0x0807d76c   Data          32  mlan_shim.o(.constdata)
    ac_to_tid                                0x0807d7e4   Data           8  mlan_wmm.o(.constdata)
    __ctype_table                            0x0807dff8   Data         129  ctype_o.o(.constdata)
    Region$$Table$$Base                      0x0807e1c8   Number         0  anon$$obj.o(Region$$Table)
    Region$$Table$$Limit                     0x0807e1e8   Number         0  anon$$obj.o(Region$$Table)
    OSCPUUsage                               0x2000000c   Data           1  os_core.o(.data)
    OSStatRdy                                0x2000000d   Data           1  os_core.o(.data)
    OSIntNesting                             0x2000000e   Data           1  os_core.o(.data)
    OSLockNesting                            0x2000000f   Data           1  os_core.o(.data)
    OSPrioCur                                0x20000010   Data           1  os_core.o(.data)
    OSPrioHighRdy                            0x20000011   Data           1  os_core.o(.data)
    OSRdyGrp                                 0x20000012   Data           1  os_core.o(.data)
    OSRunning                                0x20000013   Data           1  os_core.o(.data)
    OSTaskCtr                                0x20000014   Data           1  os_core.o(.data)
    OSTickStepState                          0x20000015   Data           1  os_core.o(.data)
    OSCtxSwCtr                               0x20000018   Data           4  os_core.o(.data)
    OSEventFreeList                          0x2000001c   Data           4  os_core.o(.data)
    OSIdleCtrMax                             0x20000020   Data           4  os_core.o(.data)
    OSIdleCtrRun                             0x20000024   Data           4  os_core.o(.data)
    OSIdleCtr                                0x20000028   Data           4  os_core.o(.data)
    OSTCBCur                                 0x2000002c   Data           4  os_core.o(.data)
    OSTCBFreeList                            0x20000030   Data           4  os_core.o(.data)
    OSTCBHighRdy                             0x20000034   Data           4  os_core.o(.data)
    OSTCBList                                0x20000038   Data           4  os_core.o(.data)
    OSTime                                   0x2000003c   Data           4  os_core.o(.data)
    OSRdyTbl                                 0x20000040   Data           5  os_core.o(.data)
    OSFlagFreeList                           0x20000048   Data           4  os_core.o(.data)
    OSQFreeList                              0x2000004c   Data           4  os_core.o(.data)
    OSTmrFree                                0x20000050   Data           2  os_core.o(.data)
    OSTmrUsed                                0x20000052   Data           2  os_core.o(.data)
    OSTmrTime                                0x20000054   Data           4  os_core.o(.data)
    OSTmrSem                                 0x20000058   Data           4  os_core.o(.data)
    OSTmrSemSignal                           0x2000005c   Data           4  os_core.o(.data)
    OSTmrFreeList                            0x20000060   Data           4  os_core.o(.data)
    jiffies                                  0x20000068   Data           4  os_cpu_c.o(.data)
    tick_ms                                  0x2000006c   Data           4  os_cpu_c.o(.data)
    errno                                    0x200000a8   Data           4  sockets.o(.data)
    mbox                                     0x200000b4   Data           4  tcpip.o(.data)
    timeoutslist                             0x200000bc   Data           4  sys_arch.o(.data)
    netif_list                               0x200000d8   Data           4  netif.o(.data)
    netif_default                            0x200000dc   Data           4  netif.o(.data)
    pbuf_free_ooseq_pending                  0x200000e0   Data           1  pbuf.o(.data)
    tcp_active_pcbs_changed                  0x200000e8   Data           1  tcp.o(.data)
    tcp_ticks                                0x200000f4   Data           4  tcp.o(.data)
    tcp_bound_pcbs                           0x200000f8   Data           4  tcp.o(.data)
    tcp_listen_pcbs                          0x200000fc   Data           4  tcp.o(.data)
    tcp_active_pcbs                          0x20000100   Data           4  tcp.o(.data)
    tcp_tw_pcbs                              0x20000104   Data           4  tcp.o(.data)
    tcp_tmp_pcb                              0x20000108   Data           4  tcp.o(.data)
    tcp_input_pcb                            0x20000124   Data           4  tcp_in.o(.data)
    udp_pcbs                                 0x20000134   Data           4  udp.o(.data)
    current_netif                            0x20000148   Data           4  ip.o(.data)
    current_header                           0x2000014c   Data           4  ip.o(.data)
    current_iphdr_src                        0x20000150   Data           4  ip.o(.data)
    current_iphdr_dest                       0x20000154   Data           4  ip.o(.data)
    tx_skb                                   0x20000160   Data           4  ethernetif.o(.data)
    leases                                   0x20000168   Data           4  dhcpd.o(.data)
    dhcp_packet                              0x2000016c   Data           4  dhcpd.o(.data)
    fw_name                                  0x20000170   Data           4  moal_main.o(.data)
    mac_addr                                 0x20000174   Data           4  moal_main.o(.data)
    max_sta_bss                              0x20000178   Data           4  moal_main.o(.data)
    sta_name                                 0x2000017c   Data           4  moal_main.o(.data)
    max_uap_bss                              0x20000180   Data           4  moal_main.o(.data)
    uap_name                                 0x20000184   Data           4  moal_main.o(.data)
    cal_data_cfg                             0x20000188   Data           4  moal_main.o(.data)
    drv_mode                                 0x2000018c   Data           4  moal_main.o(.data)
    AddRemoveCardSem                         0x20000190   Data           4  moal_main.o(.data)
    m_handle                                 0x20000194   Data           4  moal_main.o(.data)
    driver_version                           0x20000198   Data          10  moal_main.o(.data)
    cfg80211_band_2ghz                       0x200001a4   Data          44  moal_cfg80211.o(.data)
    cfg80211_band_5ghz                       0x200001d0   Data          44  moal_cfg80211.o(.data)
    assert_callback                          0x20000224   Data           4  mlan_shim.o(.data)
    mlan_ops                                 0x20000228   Data          12  mlan_shim.o(.data)
    tos_to_tid                               0x20000238   Data           8  mlan_wmm.o(.data)
    tos_to_tid_inv                           0x20000240   Data           8  mlan_wmm.o(.data)
    led_value                                0x20000248   Data           1  sys_misc.o(.data)
    led_bright_value                         0x20000249   Data           1  sys_misc.o(.data)
    g_switch                                 0x2000024a   Data           1  sys_misc.o(.data)
    led4_timer                               0x20000258   Data           4  sys_misc.o(.data)
    led5_timer                               0x2000025c   Data           4  sys_misc.o(.data)
    sta_wifi_dev                             0x20000260   Data           4  wifi.o(.data)
    ap_wifi_dev                              0x20000264   Data           4  wifi.o(.data)
    wifi_dev                                 0x20000268   Data           4  wifi.o(.data)
    usr_scan_result_callback                 0x20000270   Data           4  usr_cfg.o(.data)
    sta_mac                                  0x20000274   Data           8  test_wifi.o(.data)
    wpa_proto                                0x2000027c   Data          16  test_wifi.o(.data)
    i_socket                                 0x2000028c   Data           1  main.o(.data)
    command_event                            0x20000290   Data           4  main.o(.data)
    command                                  0x20000294   Data           1  main.o(.data)
    loopback_enable                          0x20000298   Data           1  test_tcpip.o(.data)
    rfds                                     0x20000299   Data           1  test_tcpip.o(.data)
    client_socket_fd                         0x2000029c   Data           4  test_tcpip.o(.data)
    server_socket_fd                         0x200002a0   Data           4  test_tcpip.o(.data)
    remote_socket_fd                         0x200002a4   Data           4  test_tcpip.o(.data)
    server_accept_thread_fd                  0x200002a8   Data           4  test_tcpip.o(.data)
    tcp_send_stop                            0x200002ac   Data           4  test_tcpip.o(.data)
    p_netif                                  0x200002b0   Data           4  tcpapp.o(.data)
    socket_mutex                             0x200002b4   Data           4  tcpapp.o(.data)
    monitor_enable                           0x200002b8   Data           1  debug.o(.data)
    dbg_level                                0x200002bc   Data           4  debug.o(.data)
    p_globle_buff                            0x200002c0   Data           4  debug.o(.data)
    err                                      0x200002c4   Data           4  debug.o(.data)
    __stdout                                 0x200002c8   Data           4  stdout.o(.data)
    __microlib_freelist                      0x200002cc   Data           4  mvars.o(.data)
    __microlib_freelist_initialised          0x200002d0   Data           4  mvars.o(.data)
    mem_used                                 0x200002d4   Data           8  memory.o(monitor_item_table)
    monitor_item_table$$Base                 0x200002d4   Number         0  memory.o(monitor_item_table)
    mem_max                                  0x200002dc   Data           8  memory.o(monitor_item_table)
    mem_err                                  0x200002e4   Data           8  memory.o(monitor_item_table)
    mem_block                                0x200002ec   Data           8  memory.o(monitor_item_table)
    send_packets_cnt                         0x200002f4   Data           8  ethernetif.o(monitor_item_table)
    recv_packets_cnt                         0x200002fc   Data           8  ethernetif.o(monitor_item_table)
    assoc_rsp_size                           0x20000304   Data           8  mlan_join.o(monitor_item_table)
    max_beacon_size                          0x2000030c   Data           8  mlan_scan.o(monitor_item_table)
    event_body_size                          0x20000314   Data           8  mlan_sdio.o(monitor_item_table)
    data_pkt_cnt                             0x2000031c   Data           8  mlan_sdio.o(monitor_item_table)
    tcp_totol_send                           0x20000324   Data           8  test_tcpip.o(monitor_item_table)
    tcp_totol_recv                           0x2000032c   Data           8  test_tcpip.o(monitor_item_table)
    monitor_send_cnt                         0x20000334   Data           8  debug.o(monitor_item_table)
    cccr                                     0x2000033c   Data          12  sdcard.o(.bss)
    monitor_item_table$$Limit                0x2000033c   Number         0  debug.o(monitor_item_table)
    func                                     0x20000348   Data          48  sdcard.o(.bss)
    u1_recv                                  0x20000378   Data         576  usart.o(.bss)
    u3_send                                  0x200005b8   Data          24  usart.o(.bss)
    u1_send                                  0x200005d0   Data          24  usart.o(.bss)
    buf_uart1                                0x200005e8   Data          88  usart.o(.bss)
    m25_flash                                0x20000640   Data          24  w25p80.o(.bss)
    OSEventTbl                               0x20000658   Data         960  os_core.o(.bss)
    OSTaskStatStk                            0x20000a18   Data         256  os_core.o(.bss)
    OSTaskIdleStk                            0x20000b18   Data         128  os_core.o(.bss)
    OSTCBPrioTbl                             0x20000b98   Data         132  os_core.o(.bss)
    OSTCBTbl                                 0x20000c1c   Data        1472  os_core.o(.bss)
    OSFlagTbl                                0x200011dc   Data          80  os_core.o(.bss)
    OSQTbl                                   0x2000122c   Data         384  os_core.o(.bss)
    OSTmrTbl                                 0x200013ac   Data        1280  os_core.o(.bss)
    OSTmrTaskStk                             0x200018ac   Data         256  os_core.o(.bss)
    OSTmrWheelTbl                            0x200019ac   Data          64  os_core.o(.bss)
    sockets                                  0x200019ec   Data         192  sockets.o(.bss)
    nulltimeouts                             0x20001aac   Data          12  sys_arch.o(.bss)
    dhcp_rx_options_val                      0x20001ab8   Data          36  dhcp.o(.bss)
    dhcp_rx_options_given                    0x20001adc   Data           9  dhcp.o(.bss)
    lwip_stats                               0x20001ba0   Data         232  stats.o(.bss)
    server_config                            0x20001cf8   Data         100  dhcpd.o(.bss)
    lastest_scan_result                      0x20001e9c   Data          55  usr_cfg.o(.bss)
    udp_remote_client                        0x20001ed4   Data          16  test_tcpip.o(.bss)
    tcp_rcv_buff                             0x20001ee4   Data        1028  test_tcpip.o(.bss)
    if_wifi                                  0x200022e8   Data          56  tcpapp.o(.bss)
    STACK$$Base                              0x20002320   Number         0  startup_stm32f10x_hd.o(STACK)
    __heap_base                              0x20002320   Data           0  startup_stm32f10x_hd.o(HEAP)
    __heap_limit                             0x20002320   Data           0  startup_stm32f10x_hd.o(HEAP)
    Image$$RW_IRAM1$$ZI$$Limit               0x20002720   Number         0  startup_stm32f10x_hd.o(STACK)
    __initial_sp                             0x20002720   Data           0  startup_stm32f10x_hd.o(STACK)



==============================================================================

Memory Map of the image

  Image Entry point : 0x08000131

  Load Region LR_IROM1 (Base: 0x08000000, Size: 0x0007e524, Max: 0x00080000, ABSOLUTE, COMPRESSED[0x0007e290])

    Execution Region ER_IROM1 (Base: 0x08000000, Size: 0x0007e1e8, Max: 0x00080000, ABSOLUTE)

    Base Addr    Size         Type   Attr      Idx    E Section Name        Object

    0x08000000   0x00000130   Data   RO          298    RESET               startup_stm32f10x_hd.o
    0x08000130   0x00000000   Code   RO         3982  * .ARM.Collect$$$$00000000  mc_w.l(entry.o)(mc_w.l)
    0x08000130   0x00000004   Code   RO         4330    .ARM.Collect$$$$00000001  mc_w.l(entry2.o)(mc_w.l)
    0x08000134   0x00000004   Code   RO         4333    .ARM.Collect$$$$00000004  mc_w.l(entry5.o)(mc_w.l)
    0x08000138   0x00000008   Code   RO         4334    .ARM.Collect$$$$00000007  mc_w.l(entry7.o)(mc_w.l)
    0x08000140   0x00000004   Code   RO         4331    .ARM.Collect$$$$00002712  mc_w.l(entry2.o)(mc_w.l)
    0x08000144   0x00000200   Code   RO          106    .text               stm32f10x_dma.o
    0x08000344   0x00000260   Code   RO          208    .text               stm32f10x_gpio.o
    0x080005a4   0x000003d4   Code   RO          220    .text               stm32f10x_rcc.o
    0x08000978   0x00000200   Code   RO          235    .text               stm32f10x_sdio.o
    0x08000b78   0x00000330   Code   RO          247    .text               stm32f10x_spi.o
    0x08000ea8   0x000003f4   Code   RO          272    .text               stm32f10x_usart.o
    0x0800129c   0x00000030   Code   RO          299    .text               startup_stm32f10x_hd.o
    0x080012cc   0x000000e0   Code   RO          314    .text               misc.o
    0x080013ac   0x000000d0   Code   RO          326    .text               system_stm32f10x.o
    0x0800147c   0x000010e4   Code   RO          348    .text               sdcard.o
    0x08002560   0x0000045c   Code   RO          510    .text               usart.o
    0x080029bc   0x00000238   Code   RO          553    .text               driver_misc.o
    0x08002bf4   0x000006f8   Code   RO          584    .text               w25p80.o
    0x080032ec   0x00000900   Code   RO          601    .text               os_core.o
    0x08003bec   0x00000588   Code   RO          638    .text               os_flag.o
    0x08004174   0x00000508   Code   RO          685    .text               os_q.o
    0x0800467c   0x00000310   Code   RO          697    .text               os_sem.o
    0x0800498c   0x000006d4   Code   RO          709    .text               os_task.o
    0x08005060   0x00000150   Code   RO          722    .text               os_time.o
    0x080051b0   0x000005dc   Code   RO          734    .text               os_tmr.o
    0x0800578c   0x00000110   Code   RO          772    .text               os_cpu_c.o
    0x0800589c   0x000000a4   Code   RO          908    .text               os_cpu_a.o
    0x08005940   0x000000a6   Code   RO          911    .text               atomic.o
    0x080059e6   0x00000002   PAD
    0x080059e8   0x00000138   Code   RO          955    .text               mutex.o
    0x08005b20   0x000003a0   Code   RO          979    .text               task.o
    0x08005ec0   0x0000033c   Code   RO          995    .text               timer.o
    0x080061fc   0x00000234   Code   RO         1008    .text               wait.o
    0x08006430   0x00000d74   Code   RO         1020    .text               memory.o
    0x080071a4   0x00000c20   Code   RO         1058    .text               api_lib.o
    0x08007dc4   0x000016cc   Code   RO         1129    .text               api_msg.o
    0x08009490   0x00000398   Code   RO         1253    .text               netbuf.o
    0x08009828   0x000017c4   Code   RO         1309    .text               sockets.o
    0x0800afec   0x00000358   Code   RO         1356    .text               tcpip.o
    0x0800b344   0x00000504   Code   RO         1391    .text               sys_arch.o
    0x0800b848   0x000016bc   Code   RO         1484    .text               dhcp.o
    0x0800cf04   0x0000063c   Code   RO         1526    .text               dns.o
    0x0800d540   0x0000002a   Code   RO         1543    .text               init.o
    0x0800d56a   0x00000002   PAD
    0x0800d56c   0x000002b0   Code   RO         1614    .text               netif.o
    0x0800d81c   0x00000fac   Code   RO         1640    .text               pbuf.o
    0x0800e7c8   0x000001fc   Code   RO         1669    .text               raw.o
    0x0800e9c4   0x00000002   Code   RO         1684    .text               stats.o
    0x0800e9c6   0x00000002   PAD
    0x0800e9c8   0x000012b4   Code   RO         1714    .text               tcp.o
    0x0800fc7c   0x0000171c   Code   RO         1742    .text               tcp_in.o
    0x08011398   0x000010c8   Code   RO         1768    .text               tcp_out.o
    0x08012460   0x000002dc   Code   RO         1781    .text               timers.o
    0x0801273c   0x00000574   Code   RO         1826    .text               udp.o
    0x08012cb0   0x0000040c   Code   RO         1862    .text               icmp.o
    0x080130bc   0x000006cc   Code   RO         1874    .text               igmp.o
    0x08013788   0x00000244   Code   RO         1899    .text               inet_chksum.o
    0x080139cc   0x00000510   Code   RO         1911    .text               ip.o
    0x08013edc   0x00000250   Code   RO         1960    .text               ip_addr.o
    0x0801412c   0x0000099c   Code   RO         1984    .text               ip_frag.o
    0x08014ac8   0x00000344   Code   RO         1999    .text               ethernetif.o
    0x08014e0c   0x00000c34   Code   RO         2042    .text               etharp.o
    0x08015a40   0x00000704   Code   RO         2086    .text               dhcpd.o
    0x08016144   0x00000260   Code   RO         2159    .text               leases.o
    0x080163a4   0x00000208   Code   RO         2275    .text               options.o
    0x080165ac   0x000002e0   Code   RO         2318    .text               packet.o
    0x0801688c   0x0000049c   Code   RO         2372    .text               serverpacket.o
    0x08016d28   0x000018d0   Code   RO         2422    .text               moal_main.o
    0x080185f8   0x00000cc0   Code   RO         2501    .text               moal_cfg80211.o
    0x080192b8   0x00001f90   Code   RO         2602    .text               moal_ioctl.o
    0x0801b248   0x00000788   Code   RO         2658    .text               moal_sdio_mmc.o
    0x0801b9d0   0x00000868   Code   RO         2734    .text               moal_shim.o
    0x0801c238   0x00001120   Code   RO         2779    .text               moal_sta_cfg80211.o
    0x0801d358   0x00000680   Code   RO         2799    .text               moal_uap_cfg80211.o
    0x0801d9d8   0x000015a4   Code   RO         2814    .text               moal_uap.o
    0x0801ef7c   0x0000009a   Code   RO         2838    .text               moal_uap_priv.o
    0x0801f016   0x00000002   PAD
    0x0801f018   0x000009ac   Code   RO         2853    .text               mlan_11d.o
    0x0801f9c4   0x000015b4   Code   RO         2892    .text               mlan_11h.o
    0x08020f78   0x00001044   Code   RO         2917    .text               mlan_11n.o
    0x08021fbc   0x0000052c   Code   RO         2949    .text               mlan_11n_aggr.o
    0x080224e8   0x0000089e   Code   RO         2978    .text               mlan_11n_rxreorder.o
    0x08022d86   0x00000002   PAD
    0x08022d88   0x0000085c   Code   RO         3000    .text               mlan_cfp.o
    0x080235e4   0x000018dc   Code   RO         3053    .text               mlan_cmdevt.o
    0x08024ec0   0x00000a6c   Code   RO         3081    .text               mlan_init.o
    0x0802592c   0x000013ae   Code   RO         3113    .text               mlan_join.o
    0x08026cda   0x00000002   PAD
    0x08026cdc   0x000000e4   Code   RO         3141    .text               mlan_meas.o
    0x08026dc0   0x000016b8   Code   RO         3158    .text               mlan_misc.o
    0x08028478   0x00002680   Code   RO         3184    .text               mlan_scan.o
    0x0802aaf8   0x00000978   Code   RO         3215    .text               mlan_sdio.o
    0x0802b470   0x000008fa   Code   RO         3242    .text               mlan_shim.o
    0x0802bd6a   0x00000002   PAD
    0x0802bd6c   0x00000efc   Code   RO         3269    .text               mlan_sta_cmd.o
    0x0802cc68   0x00000c4a   Code   RO         3281    .text               mlan_sta_cmdresp.o
    0x0802d8b2   0x00000002   PAD
    0x0802d8b4   0x000005a0   Code   RO         3293    .text               mlan_sta_event.o
    0x0802de54   0x00002b48   Code   RO         3305    .text               mlan_sta_ioctl.o
    0x0803099c   0x00000234   Code   RO         3325    .text               mlan_sta_rx.o
    0x08030bd0   0x00000230   Code   RO         3341    .text               mlan_sta_tx.o
    0x08030e00   0x000003ac   Code   RO         3360    .text               mlan_txrx.o
    0x080311ac   0x000020a8   Code   RO         3379    .text               mlan_uap_cmdevent.o
    0x08033254   0x00000adc   Code   RO         3391    .text               mlan_uap_ioctl.o
    0x08033d30   0x0000052c   Code   RO         3405    .text               mlan_uap_txrx.o
    0x0803425c   0x00001914   Code   RO         3417    .text               mlan_wmm.o
    0x08035b70   0x000005b4   Code   RO         3447    .text               sys_misc.o
    0x08036124   0x00000b08   Code   RO         3484    .text               wifi.o
    0x08036c2c   0x00000eb0   Code   RO         3533    .text               skbuff.o
    0x08037adc   0x00000b90   Code   RO         3555    .text               usr_cfg.o
    0x0803866c   0x00000ad4   Code   RO         3597    .text               test_wifi.o
    0x08039140   0x0000045c   Code   RO         3720    .text               main.o
    0x0803959c   0x00001830   Code   RO         3761    .text               test_tcpip.o
    0x0803adcc   0x00000ae8   Code   RO         3819    .text               tcpapp.o
    0x0803b8b4   0x000011ec   Code   RO         3909    .text               debug.o
    0x0803caa0   0x00000078   Code   RO         3946    .text               monitor.o
    0x0803cb18   0x00000008   Code   RO         3985    .text               mc_w.l(ctype_o.o)(mc_w.l)
    0x0803cb20   0x0000000c   Code   RO         4013    .text               mc_w.l(tolower.o)(mc_w.l)
    0x0803cb2c   0x00000042   Code   RO         4019    .text               mc_w.l(memmove.o)(mc_w.l)
    0x0803cb6e   0x00000026   Code   RO         4025    .text               mc_w.l(memseta.o)(mc_w.l)
    0x0803cb94   0x0000001c   Code   RO         4027    .text               mc_w.l(strcat.o)(mc_w.l)
    0x0803cbb0   0x00000018   Code   RO         4029    .text               mc_w.l(strncpy.o)(mc_w.l)
    0x0803cbc8   0x00000010   Code   RO         4031    .text               mc_w.l(strlen.o)(mc_w.l)
    0x0803cbd8   0x0000001c   Code   RO         4033    .text               mc_w.l(strcmp.o)(mc_w.l)
    0x0803cbf4   0x0000001a   Code   RO         4035    .text               mc_w.l(memcmp.o)(mc_w.l)
    0x0803cc0e   0x00000012   Code   RO         4037    .text               mc_w.l(strcpy.o)(mc_w.l)
    0x0803cc20   0x0000001e   Code   RO         4039    .text               mc_w.l(strncmp.o)(mc_w.l)
    0x0803cc3e   0x0000002c   Code   RO         4336    .text               mc_w.l(uidiv.o)(mc_w.l)
    0x0803cc6a   0x00000066   Code   RO         4338    .text               mc_w.l(uldiv.o)(mc_w.l)
    0x0803ccd0   0x00000000   Code   RO         4351    .text               mc_w.l(iusefp.o)(mc_w.l)
    0x0803ccd0   0x0000014a   Code   RO         4352    .text               mf_w.l(dadd.o)(mf_w.l)
    0x0803ce1a   0x000000e2   Code   RO         4354    .text               mf_w.l(dmul.o)(mf_w.l)
    0x0803cefc   0x000000de   Code   RO         4356    .text               mf_w.l(ddiv.o)(mf_w.l)
    0x0803cfda   0x00000030   Code   RO         4358    .text               mf_w.l(dfixul.o)(mf_w.l)
    0x0803d00a   0x00000002   PAD
    0x0803d00c   0x00000028   Code   RO         4360    .text               mf_w.l(cdrcmple.o)(mf_w.l)
    0x0803d034   0x00000024   Code   RO         4362    .text               mc_w.l(init.o)(mc_w.l)
    0x0803d058   0x0000001e   Code   RO         4364    .text               mc_w.l(llshl.o)(mc_w.l)
    0x0803d076   0x00000020   Code   RO         4366    .text               mc_w.l(llushr.o)(mc_w.l)
    0x0803d096   0x00000024   Code   RO         4368    .text               mc_w.l(llsshr.o)(mc_w.l)
    0x0803d0ba   0x000000c2   Code   RO         4372    .text               mf_w.l(depilogue.o)(mf_w.l)
    0x0803d17c   0x0000005c   Code   RO         4384    .text               mc_w.l(__dczerorl2.o)(mc_w.l)
    0x0803d1d8   0x00000020   Code   RO         4256    i.__0printf$8       mc_w.l(printf8.o)(mc_w.l)
    0x0803d1f8   0x00000028   Code   RO         4283    i.__0snprintf       mc_w.l(printfa.o)(mc_w.l)
    0x0803d220   0x00000028   Code   RO         4257    i.__0snprintf$8     mc_w.l(printf8.o)(mc_w.l)
    0x0803d248   0x00000028   Code   RO         4258    i.__0sprintf$8      mc_w.l(printf8.o)(mc_w.l)
    0x0803d270   0x0000005c   Code   RO         4310    i.__free$realloc    mc_w.l(mallocr.o)(mc_w.l)
    0x0803d2cc   0x00000050   Code   RO         4311    i.__malloc$realloc  mc_w.l(mallocr.o)(mc_w.l)
    0x0803d31c   0x0000000e   Code   RO         4378    i.__scatterload_copy  mc_w.l(handlers.o)(mc_w.l)
    0x0803d32a   0x00000002   Code   RO         4379    i.__scatterload_null  mc_w.l(handlers.o)(mc_w.l)
    0x0803d32c   0x0000000e   Code   RO         4380    i.__scatterload_zeroinit  mc_w.l(handlers.o)(mc_w.l)
    0x0803d33a   0x00000002   PAD
    0x0803d33c   0x00000154   Code   RO         4289    i._fp_digits        mc_w.l(printfa.o)(mc_w.l)
    0x0803d490   0x00000428   Code   RO         4263    i._printf_core      mc_w.l(printf8.o)(mc_w.l)
    0x0803d8b8   0x000006d4   Code   RO         4290    i._printf_core      mc_w.l(printfa.o)(mc_w.l)
    0x0803df8c   0x00000026   Code   RO         4264    i._printf_post_padding  mc_w.l(printf8.o)(mc_w.l)
    0x0803dfb2   0x00000026   Code   RO         4291    i._printf_post_padding  mc_w.l(printfa.o)(mc_w.l)
    0x0803dfd8   0x0000002e   Code   RO         4265    i._printf_pre_padding  mc_w.l(printf8.o)(mc_w.l)
    0x0803e006   0x0000002e   Code   RO         4292    i._printf_pre_padding  mc_w.l(printfa.o)(mc_w.l)
    0x0803e034   0x00000016   Code   RO         4266    i._snputc           mc_w.l(printf8.o)(mc_w.l)
    0x0803e04a   0x00000016   Code   RO         4293    i._snputc           mc_w.l(printfa.o)(mc_w.l)
    0x0803e060   0x0000000a   Code   RO         4267    i._sputc            mc_w.l(printf8.o)(mc_w.l)
    0x0803e06a   0x00000002   PAD
    0x0803e06c   0x00000010   Code   RO          525    i.enter_interrupt   usart.o
    0x0803e07c   0x00000014   Code   RO          530    i.exit_interrupt    usart.o
    0x0803e090   0x00000048   Code   RO         4312    i.internal_alloc    mc_w.l(mallocr.o)(mc_w.l)
    0x0803e0d8   0x00000004   Code   RO          362    i.local_irq_save    sdcard.o
    0x0803e0dc   0x00000070   Code   RO         4313    i.realloc           mc_w.l(mallocr.o)(mc_w.l)
    0x0803e14c   0x00000014   Data   RO          221    .constdata          stm32f10x_rcc.o
    0x0803e160   0x00000004   Data   RO          327    .constdata          system_stm32f10x.o
    0x0803e164   0x00000016   Data   RO          350    .constdata          sdcard.o
    0x0803e17a   0x0000001b   Data   RO          586    .constdata          w25p80.o
    0x0803e195   0x00000100   Data   RO          608    .constdata          os_core.o
    0x0803e295   0x0000001f   Data   RO          980    .constdata          task.o
    0x0803e2b4   0x0000004a   Data   RO         1021    .constdata          memory.o
    0x0803e2fe   0x0000000d   Data   RO         1059    .constdata          api_lib.o
    0x0803e30b   0x00000020   Data   RO         1130    .constdata          api_msg.o
    0x0803e32b   0x0000000b   Data   RO         1254    .constdata          netbuf.o
    0x0803e336   0x00000002   PAD
    0x0803e338   0x00000040   Data   RO         1311    .constdata          sockets.o
    0x0803e378   0x0000005a   Data   RO         1357    .constdata          tcpip.o
    0x0803e3d2   0x00000002   PAD
    0x0803e3d4   0x00000011   Data   RO         1393    .constdata          sys_arch.o
    0x0803e3e5   0x00000003   PAD
    0x0803e3e8   0x00000004   Data   RO         1472    .constdata          def.o
    0x0803e3ec   0x00000095   Data   RO         1486    .constdata          dhcp.o
    0x0803e481   0x00000003   PAD
    0x0803e484   0x00000050   Data   RO         1528    .constdata          dns.o
    0x0803e4d4   0x00000020   Data   RO         1587    .constdata          memp.o
    0x0803e4f4   0x0000000b   Data   RO         1641    .constdata          pbuf.o
    0x0803e4ff   0x00000008   Data   RO         1670    .constdata          raw.o
    0x0803e507   0x00000001   PAD
    0x0803e508   0x000000c6   Data   RO         1715    .constdata          tcp.o
    0x0803e5ce   0x00000002   PAD
    0x0803e5d0   0x00000069   Data   RO         1769    .constdata          tcp_out.o
    0x0803e639   0x0000000c   Data   RO         1782    .constdata          timers.o
    0x0803e645   0x00000008   Data   RO         1827    .constdata          udp.o
    0x0803e64d   0x00000012   Data   RO         1875    .constdata          igmp.o
    0x0803e65f   0x00000001   PAD
    0x0803e660   0x00000004   Data   RO         1962    .constdata          ip_addr.o
    0x0803e664   0x00000004   Data   RO         1963    .constdata          ip_addr.o
    0x0803e668   0x0000003c   Data   RO         1985    .constdata          ip_frag.o
    0x0803e6a4   0x0000001e   Data   RO         2000    .constdata          ethernetif.o
    0x0803e6c2   0x00000002   PAD
    0x0803e6c4   0x00000050   Data   RO         2044    .constdata          etharp.o
    0x0803e714   0x00000053   Data   RO         2088    .constdata          dhcpd.o
    0x0803e767   0x00000019   Data   RO         2160    .constdata          leases.o
    0x0803e780   0x0000017a   Data   RO         2276    .constdata          options.o
    0x0803e8fa   0x0000000b   Data   RO         2319    .constdata          packet.o
    0x0803e905   0x00000026   Data   RO         2373    .constdata          serverpacket.o
    0x0803e92b   0x00000001   PAD
    0x0803e92c   0x0003d07b   Data   RO         2423    .constdata          moal_main.o
    0x0807b9a7   0x00000001   PAD
    0x0807b9a8   0x00000004   Data   RO         2430    .constdata          moal_main.o
    0x0807b9ac   0x000000a8   Data   RO         2502    .constdata          moal_cfg80211.o
    0x0807ba54   0x000001f8   Data   RO         2503    .constdata          moal_cfg80211.o
    0x0807bc4c   0x0000045c   Data   RO         2504    .constdata          moal_cfg80211.o
    0x0807c0a8   0x00000028   Data   RO         2505    .constdata          moal_cfg80211.o
    0x0807c0d0   0x0000004a   Data   RO         2506    .constdata          moal_cfg80211.o
    0x0807c11a   0x00000082   Data   RO         2603    .constdata          moal_ioctl.o
    0x0807c19c   0x00000028   Data   RO         2659    .constdata          moal_sdio_mmc.o
    0x0807c1c4   0x00000084   Data   RO         2736    .constdata          moal_shim.o
    0x0807c248   0x0000003a   Data   RO         2737    .constdata          moal_shim.o
    0x0807c282   0x00000002   PAD
    0x0807c284   0x0000008f   Data   RO         2780    .constdata          moal_sta_cfg80211.o
    0x0807c313   0x00000001   PAD
    0x0807c314   0x000000a3   Data   RO         2800    .constdata          moal_uap_cfg80211.o
    0x0807c3b7   0x00000014   Data   RO         2815    .constdata          moal_uap.o
    0x0807c3cb   0x00000001   PAD
    0x0807c3cc   0x0000024c   Data   RO         2854    .constdata          mlan_11d.o
    0x0807c618   0x00000010   Data   RO         2893    .constdata          mlan_11h.o
    0x0807c628   0x00000008   Data   RO         2950    .constdata          mlan_11n_aggr.o
    0x0807c630   0x000002f5   Data   RO         3001    .constdata          mlan_cfp.o
    0x0807c925   0x00000003   PAD
    0x0807c928   0x00000084   Data   RO         3002    .constdata          mlan_cfp.o
    0x0807c9ac   0x0000009c   Data   RO         3003    .constdata          mlan_cfp.o
    0x0807ca48   0x0000009c   Data   RO         3004    .constdata          mlan_cfp.o
    0x0807cae4   0x0000009c   Data   RO         3005    .constdata          mlan_cfp.o
    0x0807cb80   0x0000000c   Data   RO         3006    .constdata          mlan_cfp.o
    0x0807cb8c   0x0000009c   Data   RO         3007    .constdata          mlan_cfp.o
    0x0807cc28   0x0000009c   Data   RO         3008    .constdata          mlan_cfp.o
    0x0807ccc4   0x000000a8   Data   RO         3009    .constdata          mlan_cfp.o
    0x0807cd6c   0x00000120   Data   RO         3010    .constdata          mlan_cfp.o
    0x0807ce8c   0x000000fc   Data   RO         3011    .constdata          mlan_cfp.o
    0x0807cf88   0x000000e4   Data   RO         3012    .constdata          mlan_cfp.o
    0x0807d06c   0x000000e4   Data   RO         3013    .constdata          mlan_cfp.o
    0x0807d150   0x0000003c   Data   RO         3014    .constdata          mlan_cfp.o
    0x0807d18c   0x0000000c   Data   RO         3015    .constdata          mlan_cfp.o
    0x0807d198   0x000000e4   Data   RO         3016    .constdata          mlan_cfp.o
    0x0807d27c   0x00000030   Data   RO         3017    .constdata          mlan_cfp.o
    0x0807d2ac   0x00000030   Data   RO         3018    .constdata          mlan_cfp.o
    0x0807d2dc   0x00000060   Data   RO         3019    .constdata          mlan_cfp.o
    0x0807d33c   0x00000084   Data   RO         3020    .constdata          mlan_cfp.o
    0x0807d3c0   0x0000003c   Data   RO         3021    .constdata          mlan_cfp.o
    0x0807d3fc   0x00000084   Data   RO         3022    .constdata          mlan_cfp.o
    0x0807d480   0x0000003c   Data   RO         3023    .constdata          mlan_cfp.o
    0x0807d4bc   0x00000030   Data   RO         3024    .constdata          mlan_cfp.o
    0x0807d4ec   0x00000030   Data   RO         3025    .constdata          mlan_cfp.o
    0x0807d51c   0x00000030   Data   RO         3026    .constdata          mlan_cfp.o
    0x0807d54c   0x00000084   Data   RO         3027    .constdata          mlan_cfp.o
    0x0807d5d0   0x0000003c   Data   RO         3028    .constdata          mlan_cfp.o
    0x0807d60c   0x0000006c   Data   RO         3029    .constdata          mlan_cfp.o
    0x0807d678   0x00000012   Data   RO         3030    .constdata          mlan_cfp.o
    0x0807d68a   0x00000002   Data   RO         3031    .constdata          mlan_cfp.o
    0x0807d68c   0x0000000a   Data   RO         3032    .constdata          mlan_cfp.o
    0x0807d696   0x0000002c   Data   RO         3054    .constdata          mlan_cmdevt.o
    0x0807d6c2   0x00000021   Data   RO         3082    .constdata          mlan_init.o
    0x0807d6e3   0x00000051   Data   RO         3114    .constdata          mlan_join.o
    0x0807d734   0x00000016   Data   RO         3216    .constdata          mlan_sdio.o
    0x0807d74a   0x00000002   PAD
    0x0807d74c   0x00000020   Data   RO         3243    .constdata          mlan_shim.o
    0x0807d76c   0x00000020   Data   RO         3244    .constdata          mlan_shim.o
    0x0807d78c   0x0000003f   Data   RO         3306    .constdata          mlan_sta_ioctl.o
    0x0807d7cb   0x00000015   Data   RO         3392    .constdata          mlan_uap_ioctl.o
    0x0807d7e0   0x0000001d   Data   RO         3418    .constdata          mlan_wmm.o
    0x0807d7fd   0x00000012   Data   RO         3448    .constdata          sys_misc.o
    0x0807d80f   0x000000a6   Data   RO         3485    .constdata          wifi.o
    0x0807d8b5   0x00000003   PAD
    0x0807d8b8   0x0000011e   Data   RO         3534    .constdata          skbuff.o
    0x0807d9d6   0x000000b8   Data   RO         3557    .constdata          usr_cfg.o
    0x0807da8e   0x0000008e   Data   RO         3598    .constdata          test_wifi.o
    0x0807db1c   0x00000061   Data   RO         3721    .constdata          main.o
    0x0807db7d   0x000000e4   Data   RO         3763    .constdata          test_tcpip.o
    0x0807dc61   0x0000006a   Data   RO         3821    .constdata          tcpapp.o
    0x0807dccb   0x00000001   PAD
    0x0807dccc   0x0000032c   Data   RO         3910    .constdata          debug.o
    0x0807dff8   0x00000081   Data   RO         3986    .constdata          mc_w.l(ctype_o.o)(mc_w.l)
    0x0807e079   0x00000003   PAD
    0x0807e07c   0x00000004   Data   RO         3987    .constdata          mc_w.l(ctype_o.o)(mc_w.l)
    0x0807e080   0x00000068   Data   RO         1716    .conststring        tcp.o
    0x0807e0e8   0x0000001d   Data   RO         3599    .conststring        test_wifi.o
    0x0807e105   0x0000000e   Data   RO         3911    .conststring        debug.o
    0x0807e113   0x00000023   Data   RO         1022    .conststrlit        memory.o
    0x0807e136   0x00000022   Data   RO         2001    .conststrlit        ethernetif.o
    0x0807e158   0x0000000f   Data   RO         3115    .conststrlit        mlan_join.o
    0x0807e167   0x00000010   Data   RO         3185    .conststrlit        mlan_scan.o
    0x0807e177   0x0000001d   Data   RO         3217    .conststrlit        mlan_sdio.o
    0x0807e194   0x0000001e   Data   RO         3764    .conststrlit        test_tcpip.o
    0x0807e1b2   0x00000015   Data   RO         3912    .conststrlit        debug.o
    0x0807e1c7   0x00000001   PAD
    0x0807e1c8   0x00000020   Data   RO         4376    Region$$Table       anon$$obj.o


    Execution Region RW_IRAM1 (Base: 0x20000000, Size: 0x00002720, Max: 0x00010000, ABSOLUTE, COMPRESSED[0x000000a8])

    Base Addr    Size         Type   Attr      Idx    E Section Name        Object

    0x20000000   0x0000000c   Data   RW          351    .data               sdcard.o
    0x2000000c   0x00000039   Data   RW          609    .data               os_core.o
    0x20000045   0x00000003   PAD
    0x20000048   0x00000004   Data   RW          610    .data               os_core.o
    0x2000004c   0x00000004   Data   RW          611    .data               os_core.o
    0x20000050   0x00000002   Data   RW          612    .data               os_core.o
    0x20000052   0x00000002   Data   RW          613    .data               os_core.o
    0x20000054   0x00000004   Data   RW          614    .data               os_core.o
    0x20000058   0x00000004   Data   RW          615    .data               os_core.o
    0x2000005c   0x00000004   Data   RW          616    .data               os_core.o
    0x20000060   0x00000004   Data   RW          617    .data               os_core.o
    0x20000064   0x00000010   Data   RW          773    .data               os_cpu_c.o
    0x20000074   0x00000004   Data   RW          981    .data               task.o
    0x20000078   0x00000028   Data   RW         1023    .data               memory.o
    0x200000a0   0x0000000c   Data   RW         1312    .data               sockets.o
    0x200000ac   0x00000010   Data   RW         1358    .data               tcpip.o
    0x200000bc   0x00000004   Data   RW         1394    .data               sys_arch.o
    0x200000c0   0x00000004   Data   RW         1487    .data               dhcp.o
    0x200000c4   0x00000010   Data   RW         1529    .data               dns.o
    0x200000d4   0x0000000c   Data   RW         1615    .data               netif.o
    0x200000e0   0x00000001   Data   RW         1642    .data               pbuf.o
    0x200000e1   0x00000003   PAD
    0x200000e4   0x00000004   Data   RW         1671    .data               raw.o
    0x200000e8   0x00000024   Data   RW         1717    .data               tcp.o
    0x2000010c   0x0000001c   Data   RW         1744    .data               tcp_in.o
    0x20000128   0x00000008   Data   RW         1783    .data               timers.o
    0x20000130   0x00000008   Data   RW         1828    .data               udp.o
    0x20000138   0x0000000c   Data   RW         1876    .data               igmp.o
    0x20000144   0x00000014   Data   RW         1912    .data               ip.o
    0x20000158   0x00000008   Data   RW         1986    .data               ip_frag.o
    0x20000160   0x00000004   Data   RW         2002    .data               ethernetif.o
    0x20000164   0x00000001   Data   RW         2045    .data               etharp.o
    0x20000165   0x00000003   PAD
    0x20000168   0x00000008   Data   RW         2089    .data               dhcpd.o
    0x20000170   0x00000032   Data   RW         2432    .data               moal_main.o
    0x200001a2   0x00000002   PAD
    0x200001a4   0x0000002c   Data   RW         2507    .data               moal_cfg80211.o
    0x200001d0   0x0000002c   Data   RW         2508    .data               moal_cfg80211.o
    0x200001fc   0x00000004   Data   RW         2509    .data               moal_cfg80211.o
    0x20000200   0x00000001   Data   RW         2738    .data               moal_shim.o
    0x20000201   0x00000003   PAD
    0x20000204   0x00000004   Data   RW         2816    .data               moal_uap.o
    0x20000208   0x00000001   Data   RW         2918    .data               mlan_11n.o
    0x20000209   0x00000003   PAD
    0x2000020c   0x00000004   Data   RW         3055    .data               mlan_cmdevt.o
    0x20000210   0x00000001   Data   RW         3142    .data               mlan_meas.o
    0x20000211   0x00000010   Data   RW         3186    .data               mlan_scan.o
    0x20000221   0x00000003   PAD
    0x20000224   0x00000010   Data   RW         3245    .data               mlan_shim.o
    0x20000234   0x00000014   Data   RW         3419    .data               mlan_wmm.o
    0x20000248   0x00000018   Data   RW         3449    .data               sys_misc.o
    0x20000260   0x0000000c   Data   RW         3486    .data               wifi.o
    0x2000026c   0x00000004   Data   RW         3535    .data               skbuff.o
    0x20000270   0x00000004   Data   RW         3558    .data               usr_cfg.o
    0x20000274   0x00000018   Data   RW         3600    .data               test_wifi.o
    0x2000028c   0x00000008   Data   RW         3722    .data               main.o
    0x20000294   0x00000001   Data   RW         3723    .data               main.o
    0x20000295   0x00000003   PAD
    0x20000298   0x00000018   Data   RW         3765    .data               test_tcpip.o
    0x200002b0   0x00000008   Data   RW         3822    .data               tcpapp.o
    0x200002b8   0x00000010   Data   RW         3913    .data               debug.o
    0x200002c8   0x00000004   Data   RW         4335    .data               mc_w.l(stdout.o)(mc_w.l)
    0x200002cc   0x00000004   Data   RW         4340    .data               mc_w.l(mvars.o)(mc_w.l)
    0x200002d0   0x00000004   Data   RW         4341    .data               mc_w.l(mvars.o)(mc_w.l)
    0x200002d4   0x00000020   Data   RW         1024    monitor_item_table  memory.o
    0x200002f4   0x00000010   Data   RW         2003    monitor_item_table  ethernetif.o
    0x20000304   0x00000008   Data   RW         3116    monitor_item_table  mlan_join.o
    0x2000030c   0x00000008   Data   RW         3187    monitor_item_table  mlan_scan.o
    0x20000314   0x00000010   Data   RW         3218    monitor_item_table  mlan_sdio.o
    0x20000324   0x00000010   Data   RW         3766    monitor_item_table  test_tcpip.o
    0x20000334   0x00000008   Data   RW         3914    monitor_item_table  debug.o
    0x2000033c   0x0000003c   Zero   RW          349    .bss                sdcard.o
    0x20000378   0x000002c8   Zero   RW          511    .bss                usart.o
    0x20000640   0x00000018   Zero   RW          585    .bss                w25p80.o
    0x20000658   0x00000b84   Zero   RW          602    .bss                os_core.o
    0x200011dc   0x00000050   Zero   RW          603    .bss                os_core.o
    0x2000122c   0x00000180   Zero   RW          604    .bss                os_core.o
    0x200013ac   0x00000500   Zero   RW          605    .bss                os_core.o
    0x200018ac   0x00000100   Zero   RW          606    .bss                os_core.o
    0x200019ac   0x00000040   Zero   RW          607    .bss                os_core.o
    0x200019ec   0x000000c0   Zero   RW         1310    .bss                sockets.o
    0x20001aac   0x0000000c   Zero   RW         1392    .bss                sys_arch.o
    0x20001ab8   0x0000002d   Zero   RW         1485    .bss                dhcp.o
    0x20001ae5   0x00000003   PAD
    0x20001ae8   0x000000b8   Zero   RW         1527    .bss                dns.o
    0x20001ba0   0x000000e8   Zero   RW         1685    .bss                stats.o
    0x20001c88   0x00000010   Zero   RW         1743    .bss                tcp_in.o
    0x20001c98   0x00000010   Zero   RW         1961    .bss                ip_addr.o
    0x20001ca8   0x00000050   Zero   RW         2043    .bss                etharp.o
    0x20001cf8   0x00000064   Zero   RW         2087    .bss                dhcpd.o
    0x20001d5c   0x00000140   Zero   RW         2735    .bss                moal_shim.o
    0x20001e9c   0x00000037   Zero   RW         3556    .bss                usr_cfg.o
    0x20001ed3   0x00000001   PAD
    0x20001ed4   0x00000414   Zero   RW         3762    .bss                test_tcpip.o
    0x200022e8   0x00000038   Zero   RW         3820    .bss                tcpapp.o
    0x20002320   0x00000000   Zero   RW          297    HEAP                startup_stm32f10x_hd.o
    0x20002320   0x00000400   Zero   RW          296    STACK               startup_stm32f10x_hd.o


==============================================================================

Image component sizes


      Code (inc. data)   RO Data    RW Data    ZI Data      Debug   Object Name

      3104        948         13          0          0          0   api_lib.o
      5836       1250         32          0          0          0   api_msg.o
       166          0          0          0          0          0   atomic.o
      4588        552        847         24          0          0   debug.o
         0          0          4          0          0          0   def.o
      5820       1078        149          4         45          0   dhcp.o
      1796        208         83          8        100          0   dhcpd.o
      1596        272         80         16        184          0   dns.o
       568        120          0          0          0          0   driver_misc.o
      3124        604         80          1         80          0   etharp.o
       836        220         64         20          0          0   ethernetif.o
      1036        372          0          0          0          0   icmp.o
      1740        404         18         12          0          0   igmp.o
       580         96          0          0          0          0   inet_chksum.o
        42          0          0          0          0          0   init.o
      1296        160          0         20          0          0   ip.o
       592        102          8          0         16          0   ip_addr.o
      2460        534         60          8          0          0   ip_frag.o
       608         52         25          0          0          0   leases.o
      1116        234         97          9          0          0   main.o
      3444        750        109         72          0          0   memory.o
         0          0         32          0          0          0   memp.o
       224         16          0          0          0          0   misc.o
      2476         22        588          0          0          0   mlan_11d.o
      5556         98         16          0          0          0   mlan_11h.o
      4164         36          0          1          0          0   mlan_11n.o
      1324         18          8          0          0          0   mlan_11n_aggr.o
      2206          6          0          0          0          0   mlan_11n_rxreorder.o
      2140         86       4195          0          0          0   mlan_cfp.o
      6364         76         44          4          0          0   mlan_cmdevt.o
      2668         12         33          0          0          0   mlan_init.o
      5038        186         96          8          0          0   mlan_join.o
       228          8          0          1          0          0   mlan_meas.o
      5816         68          0          0          0          0   mlan_misc.o
      9856         64         16         24          0          0   mlan_scan.o
      2424         88         51         16          0          0   mlan_sdio.o
      2298         28         64         16          0          0   mlan_shim.o
      3836         34          0          0          0          0   mlan_sta_cmd.o
      3146         34          0          0          0          0   mlan_sta_cmdresp.o
      1440         46          0          0          0          0   mlan_sta_event.o
     11080        486         63          0          0          0   mlan_sta_ioctl.o
       564         30          0          0          0          0   mlan_sta_rx.o
       560          6          0          0          0          0   mlan_sta_tx.o
       940         28          0          0          0          0   mlan_txrx.o
      8360         96          0          0          0          0   mlan_uap_cmdevent.o
      2780        114         21          0          0          0   mlan_uap_ioctl.o
      1324          4          0          0          0          0   mlan_uap_txrx.o
      6420        120         29         20          0          0   mlan_wmm.o
      3264         90       1902         92          0          0   moal_cfg80211.o
         0          0          0          0          0          0   moal_debug.o
      8080        266        130          0          0          0   moal_ioctl.o
      6352        318     249983         50          0          0   moal_main.o
         0          0          0          0          0          0   moal_proc.o
      1928        168         40          0          0          0   moal_sdio_mmc.o
      2152        160        190          1        320          0   moal_shim.o
      4384         72        143          0          0          0   moal_sta_cfg80211.o
      5540        274         20          4          0          0   moal_uap.o
      1664         80        163          0          0          0   moal_uap_cfg80211.o
       154          0          0          0          0          0   moal_uap_priv.o
       120         24          0          0          0          0   monitor.o
       312         84          0          0          0          0   mutex.o
       920        344         11          0          0          0   netbuf.o
       688        112          0         12          0          0   netif.o
       520         10        378          0          0          0   options.o
      2304         80        256         85       5012          0   os_core.o
       164         32          0          0          0          0   os_cpu_a.o
       272         14          0         16          0          0   os_cpu_c.o
      1416         38          0          0          0          0   os_flag.o
      1288         32          0          0          0          0   os_q.o
       784         20          0          0          0          0   os_sem.o
      1748         70          0          0          0          0   os_task.o
       336         24          0          0          0          0   os_time.o
      1500        176          0          0          0          0   os_tmr.o
       736         62         11          0          0          0   packet.o
      4012       1258         11          1          0          0   pbuf.o
       508        134          8          4          0          0   raw.o
      4328        650         22         12         60          0   sdcard.o
      1180         78         38          0          0          0   serverpacket.o
      3760        254        286          4          0          0   skbuff.o
      6084        732         64         12        192          0   sockets.o
        48         12        304          0       1024          0   startup_stm32f10x_hd.o
         2          0          0          0        232          0   stats.o
         0          0          0          0          0          0   stm32f10x_adc.o
       512         18          0          0          0          0   stm32f10x_dma.o
       608         18          0          0          0          0   stm32f10x_gpio.o
       980         56         20          0          0          0   stm32f10x_rcc.o
       512         54          0          0          0          0   stm32f10x_sdio.o
       816          4          0          0          0          0   stm32f10x_spi.o
      1012         12          0          0          0          0   stm32f10x_usart.o
      1284        226         17          4         12          0   sys_arch.o
      1460        264         18         24          0          0   sys_misc.o
       208         18          4          0          0          0   system_stm32f10x.o
       928        156         31          4          0          0   task.o
      4788       1120        302         36          0          0   tcp.o
      5916        956          0         28         16          0   tcp_in.o
      4296        886        105          0          0          0   tcp_out.o
      2792        416        106          8         56          0   tcpapp.o
       856        186         90         16          0          0   tcpip.o
      6192       1062        258         40       1044          0   test_tcpip.o
      2772        520        171         24          0          0   test_wifi.o
       828        178          0          0          0          0   timer.o
       732        190         12          8          0          0   timers.o
      1396        204          8          8          0          0   udp.o
      1152        156          0          0        712          0   usart.o
      2960        538        184          4         55          0   usr_cfg.o
      1784        216         27          0         24          0   w25p80.o
       564        160          0          0          0          0   wait.o
      2824        410        166         12          0          0   wifi.o

    ----------------------------------------------------------------------
    248316      23458     262468        816       9188          0   Object Totals
         0          0         32          0          0          0   (incl. Generated)
        16          0         32         23          4          3   (incl. Padding)

    ----------------------------------------------------------------------

      Code (inc. data)   RO Data    RW Data    ZI Data      Debug   Library Member Name

        92          0          0          0          0          0   __dczerorl2.o
         8          4        133          0          0          0   ctype_o.o
         0          0          0          0          0          0   entry.o
         8          4          0          0          0          0   entry2.o
         4          0          0          0          0          0   entry5.o
         8          4          0          0          0          0   entry7.o
        30          0          0          0          0          0   handlers.o
        36          8          0          0          0          0   init.o
         0          0          0          0          0          0   iusefp.o
        30          0          0          0          0          0   llshl.o
        36          0          0          0          0          0   llsshr.o
        32          0          0          0          0          0   llushr.o
       356         28          0          0          0          0   mallocr.o
        26          0          0          0          0          0   memcmp.o
        66          0          0          0          0          0   memmove.o
        38          0          0          0          0          0   memseta.o
         0          0          0          8          0          0   mvars.o
      1292         64          0          0          0          0   printf8.o
      2234         86          0          0          0          0   printfa.o
         0          0          0          4          0          0   stdout.o
        28          0          0          0          0          0   strcat.o
        28          0          0          0          0          0   strcmp.o
        18          0          0          0          0          0   strcpy.o
        16          0          0          0          0          0   strlen.o
        30          0          0          0          0          0   strncmp.o
        24          0          0          0          0          0   strncpy.o
        12          0          0          0          0          0   tolower.o
        44          0          0          0          0          0   uidiv.o
       102          0          0          0          0          0   uldiv.o
        40          2          0          0          0          0   cdrcmple.o
       330          0          0          0          0          0   dadd.o
       222          0          0          0          0          0   ddiv.o
       194          0          0          0          0          0   depilogue.o
        48          0          0          0          0          0   dfixul.o
       226          0          0          0          0          0   dmul.o

    ----------------------------------------------------------------------
      5664        200        136         12          0          0   Library Totals
         6          0          3          0          0          0   (incl. Padding)

    ----------------------------------------------------------------------

      Code (inc. data)   RO Data    RW Data    ZI Data      Debug   Library Name

      4598        198        133         12          0       2820   mc_w.l
      1060          2          0          0          0        664   mf_w.l

    ----------------------------------------------------------------------
      5664        200        136         12          0          0   Library Totals

    ----------------------------------------------------------------------

==============================================================================


      Code (inc. data)   RO Data    RW Data    ZI Data      Debug   

    253980      23658     262604        828       9188    3100288   Grand Totals
    253980      23658     262604        168       9188    3100288   ELF Image Totals (compressed)
    253980      23658     262604        168          0          0   ROM Totals

==============================================================================

    Total RO  Size (Code + RO Data)               516584 ( 504.48kB)
    Total RW  Size (RW Data + ZI Data)             10016 (   9.78kB)
    Total ROM Size (Code + RO Data + RW Data)     516752 ( 504.64kB)

==============================================================================

